ccollections
OrderedDict
p0
((lp1
(lp2
S'172.16.68.10'
p3
a(lp4
(F1491656166.09
I2
tp5
a(F1491656170.19
I2
tp6
a(F1491656170.2
I2
tp7
a(F1491656170.2
I2
tp8
a(F1491656170.2
I2
tp9
a(F1491656170.21
I2
tp10
a(F1491656170.21
I2
tp11
a(F1491656170.21
I2
tp12
a(F1491656170.22
I2
tp13
a(F1491656170.22
I2
tp14
a(F1491656172.05
I2
tp15
a(F1491656172.35
I2
tp16
a(F1491656174.54
I2
tp17
a(F1491656174.93
I2
tp18
a(F1491656178.4
I2
tp19
a(F1491656178.41
I2
tp20
a(F1491656186.79
I2
tp21
a(F1491656188.12
I2
tp22
a(F1491656192.15
I2
tp23
a(F1491656192.58
I2
tp24
a(F1491656192.84
I2
tp25
a(F1491656192.88
I2
tp26
a(F1491656192.92
I2
tp27
a(F1491656192.92
I2
tp28
a(F1491656192.92
I2
tp29
a(F1491656192.93
I2
tp30
a(F1491656192.96
I2
tp31
a(F1491656192.97
I0
tp32
a(F1491656192.97
I0
tp33
a(F1491656192.97
I2
tp34
a(F1491656192.98
I0
tp35
a(F1491656193.04
I0
tp36
a(F1491656193.15
I0
tp37
a(F1491656193.15
I0
tp38
a(F1491656193.43
I0
tp39
a(F1491656194.26
I0
tp40
a(F1491656195.48
I0
tp41
a(F1491656196.59
I0
tp42
a(F1491656251.55
I0
tp43
a(F1491656277.11
I0
tp44
a(F1491656299.33
I2
tp45
a(F1491656327.46
I2
tp46
a(F1491656327.71
I2
tp47
a(F1491656331.3
I2
tp48
a(F1491656332.68
I2
tp49
a(F1491656339.04
I2
tp50
a(F1491656340.03
I2
tp51
a(F1491656389.36
I2
tp52
a(F1491656390.78
I2
tp53
a(F1491656390.79
I2
tp54
a(F1491656393.78
I2
tp55
a(F1491656410.97
I2
tp56
a(F1491656432.08
I2
tp57
a(F1491656435.46
I0
tp58
a(F1491656436.41
I2
tp59
a(F1491656437.09
I2
tp60
a(F1491656442.12
I2
tp61
a(F1491656447.12
I2
tp62
a(F1491656473.28
I0
tp63
a(F1491656480.34
I2
tp64
a(F1491656481.3
I2
tp65
a(F1491656484.79
I2
tp66
a(F1491656516.57
I0
tp67
a(F1491656579.95
I2
tp68
a(F1491656601.28
I2
tp69
a(F1491656618.93
I0
tp70
a(F1491656637.46
I0
tp71
a(F1491656664.41
I0
tp72
a(F1491656823.31
I0
tp73
a(F1491656981.58
I0
tp74
a(F1491657013.74
I2
tp75
a(F1491657020.94
I2
tp76
a(F1491657047.37
I2
tp77
a(F1491657125.75
I0
tp78
a(F1491657147.06
I2
tp79
a(F1491657179.41
I2
tp80
a(F1491657294.41
I2
tp81
a(F1491657312.25
I2
tp82
a(F1491657312.9
I2
tp83
a(F1491657332.69
I0
tp84
a(F1491657332.69
I0
tp85
a(F1491657417.91
I2
tp86
a(F1491657426.06
I2
tp87
a(F1491657476.96
I2
tp88
a(F1491657552.84
I2
tp89
a(F1491657558.21
I2
tp90
a(F1491657604.31
I2
tp91
a(F1491657615.29
I2
tp92
a(F1491657616.36
I0
tp93
a(F1491657680.09
I2
tp94
a(F1491657690.83
I2
tp95
a(F1491657710.8
I0
tp96
a(F1491657731.55
I2
tp97
a(F1491657773.58
I2
tp98
a(F1491657802.58
I2
tp99
a(F1491657802.58
I0
tp100
a(F1491657807.44
I2
tp101
a(F1491657814.38
I2
tp102
a(F1491657823.92
I2
tp103
a(F1491657868.14
I0
tp104
a(F1491657926.31
I2
tp105
a(F1491657927.07
I0
tp106
a(F1491657930.02
I0
tp107
a(F1491657945.5
I0
tp108
a(F1491657957.62
I2
tp109
a(F1491657986.01
I2
tp110
a(F1491658028.32
I0
tp111
a(F1491658061.92
I2
tp112
a(F1491658074.48
I2
tp113
a(F1491658076.44
I0
tp114
a(F1491658076.44
I0
tp115
a(F1491658076.5
I0
tp116
a(F1491658091.9
I2
tp117
a(F1491658094.42
I0
tp118
a(F1491658113.25
I2
tp119
a(F1491658189.33
I2
tp120
a(F1491658227.01
I2
tp121
a(F1491658284.29
I2
tp122
a(F1491658316.5
I2
tp123
a(F1491658316.51
I0
tp124
a(F1491658316.79
I2
tp125
a(F1491658363.72
I2
tp126
a(F1491658375.29
I2
tp127
a(F1491658412.48
I2
tp128
a(F1491658438.04
I0
tp129
a(F1491658443.75
I2
tp130
a(F1491658443.84
I2
tp131
a(F1491658444.12
I0
tp132
a(F1491658489.34
I2
tp133
a(F1491658502.4
I2
tp134
a(F1491658570.97
I2
tp135
a(F1491658643.37
I2
tp136
a(F1491658665.43
I0
tp137
a(F1491658665.54
I0
tp138
a(F1491658676.35
I2
tp139
a(F1491658729.3
I2
tp140
a(F1491658764.44
I2
tp141
a(F1491658764.68
I2
tp142
a(F1491658787.33
I2
tp143
a(F1491658794.42
I0
tp144
a(F1491658794.67
I0
tp145
a(F1491658811.08
I0
tp146
a(F1491658811.18
I2
tp147
a(F1491658811.19
I0
tp148
a(F1491658811.35
I2
tp149
a(F1491658839.17
I2
tp150
a(F1491658856.53
I2
tp151
a(F1491658856.8
I2
tp152
a(F1491658869.85
I0
tp153
a(F1491658934.7
I2
tp154
a(F1491658977.29
I2
tp155
a(F1491658984.28
I2
tp156
a(F1491659041.05
I0
tp157
a(F1491659086.4
I2
tp158
a(F1491659111.38
I2
tp159
a(F1491659114.97
I2
tp160
a(F1491659115.26
I2
tp161
a(F1491659144.87
I2
tp162
a(F1491659200.2
I2
tp163
a(F1491659200.2
I2
tp164
a(F1491659200.2
I2
tp165
a(F1491659200.24
I2
tp166
a(F1491659200.27
I2
tp167
a(F1491659200.27
I2
tp168
a(F1491659200.27
I2
tp169
a(F1491659200.27
I2
tp170
a(F1491659200.27
I2
tp171
a(F1491659200.27
I2
tp172
a(F1491659200.46
I2
tp173
a(F1491659200.48
I2
tp174
a(F1491659200.48
I2
tp175
a(F1491659200.48
I2
tp176
a(F1491659200.48
I2
tp177
a(F1491659200.49
I2
tp178
a(F1491659200.49
I2
tp179
a(F1491659200.49
I2
tp180
a(F1491659200.49
I2
tp181
a(F1491659200.49
I2
tp182
a(F1491659200.52
I2
tp183
a(F1491659200.52
I2
tp184
a(F1491659200.52
I2
tp185
a(F1491659200.52
I2
tp186
a(F1491659200.52
I2
tp187
a(F1491659200.52
I2
tp188
a(F1491659200.52
I2
tp189
a(F1491659200.52
I2
tp190
a(F1491659200.52
I2
tp191
a(F1491659200.52
I2
tp192
a(F1491659200.53
I2
tp193
a(F1491659200.56
I2
tp194
a(F1491659200.56
I2
tp195
a(F1491659200.56
I2
tp196
a(F1491659200.57
I2
tp197
a(F1491659200.57
I2
tp198
a(F1491659200.57
I2
tp199
a(F1491659200.58
I2
tp200
a(F1491659200.58
I2
tp201
a(F1491659200.58
I2
tp202
a(F1491659200.7
I2
tp203
a(F1491659200.7
I2
tp204
a(F1491659200.72
I2
tp205
a(F1491659200.72
I2
tp206
a(F1491659200.72
I2
tp207
a(F1491659200.73
I2
tp208
a(F1491659200.73
I2
tp209
a(F1491659200.73
I2
tp210
a(F1491659200.73
I2
tp211
a(F1491659200.74
I2
tp212
a(F1491659200.74
I2
tp213
a(F1491659200.74
I2
tp214
a(F1491659200.75
I2
tp215
a(F1491659200.75
I2
tp216
a(F1491659200.76
I2
tp217
a(F1491659200.77
I2
tp218
a(F1491659200.77
I2
tp219
a(F1491659200.77
I2
tp220
a(F1491659200.77
I2
tp221
a(F1491659200.77
I2
tp222
a(F1491659200.77
I2
tp223
a(F1491659200.77
I2
tp224
a(F1491659200.78
I2
tp225
a(F1491659200.78
I2
tp226
a(F1491659200.78
I2
tp227
a(F1491659200.88
I2
tp228
a(F1491659201.54
I2
tp229
a(F1491659238.62
I0
tp230
a(F1491659243.2
I2
tp231
a(F1491659278.34
I2
tp232
a(F1491659355.26
I2
tp233
a(F1491659406.21
I2
tp234
a(F1491659411.61
I0
tp235
a(F1491659411.64
I0
tp236
a(F1491659470.44
I0
tp237
a(F1491659478.53
I2
tp238
a(F1491659482.58
I2
tp239
a(F1491659482.84
I0
tp240
a(F1491659576.79
I2
tp241
a(F1491659609.81
I2
tp242
a(F1491659610.07
I2
tp243
a(F1491659737.3
I2
tp244
a(F1491659737.43
I2
tp245
a(F1491659737.43
I2
tp246
a(F1491659756.39
I2
tp247
a(F1491659768.34
I0
tp248
a(F1491659810.27
I0
tp249
a(F1491659864.54
I2
tp250
a(F1491659864.81
I2
tp251
a(F1491659880.25
I2
tp252
a(F1491659937.81
I2
tp253
a(F1491659978.49
I0
tp254
a(F1491659991.77
I2
tp255
a(F1491660011.25
I2
tp256
a(F1491660015.78
I0
tp257
a(F1491660019.52
I2
tp258
a(F1491660045.61
I0
tp259
a(F1491660084.3
I2
tp260
a(F1491660091.07
I0
tp261
a(F1491660119.04
I2
tp262
a(F1491660119.31
I2
tp263
a(F1491660119.31
I2
tp264
a(F1491660150.91
I2
tp265
a(F1491660181.28
I2
tp266
a(F1491660184.23
I0
tp267
a(F1491660211.64
I2
tp268
a(F1491660236.47
I0
tp269
a(F1491660236.76
I0
tp270
a(F1491660246.61
I2
tp271
a(F1491660359.26
I2
tp272
a(F1491660362.55
I2
tp273
a(F1491660371.61
I0
tp274
a(F1491660373.46
I2
tp275
a(F1491660385.3
I0
tp276
a(F1491660388.22
I0
tp277
a(F1491660391.99
I0
tp278
a(F1491660397.78
I0
tp279
a(F1491660410.71
I0
tp280
a(F1491660463.5
I0
tp281
a(F1491660463.57
I0
tp282
a(F1491660468.2
I0
tp283
a(F1491660473.95
I2
tp284
a(F1491660482.3
I2
tp285
a(F1491660486.49
I2
tp286
a(F1491660500.69
I2
tp287
a(F1491660508.49
I2
tp288
a(F1491660553.3
I2
tp289
a(F1491660568.71
I0
tp290
a(F1491660613.72
I0
tp291
a(F1491660613.84
I2
tp292
a(F1491660628.18
I2
tp293
a(F1491660632.0
I0
tp294
a(F1491660706.79
I2
tp295
a(F1491660740.95
I2
tp296
a(F1491660779.68
I0
tp297
a(F1491660783.26
I2
tp298
a(F1491660790.76
I2
tp299
a(F1491660807.48
I2
tp300
a(F1491660833.1
I2
tp301
a(F1491660834.89
I2
tp302
a(F1491660837.88
I2
tp303
a(F1491660868.19
I2
tp304
a(F1491660882.9
I0
tp305
a(F1491660934.74
I2
tp306
a(F1491660946.79
I2
tp307
a(F1491661051.31
I2
tp308
a(F1491661061.99
I0
tp309
a(F1491661074.01
I2
tp310
a(F1491661084.26
I2
tp311
a(F1491661098.95
I0
tp312
a(F1491661152.83
I2
tp313
a(F1491661201.24
I2
tp314
a(F1491661211.15
I2
tp315
a(F1491661244.73
I0
tp316
a(F1491661244.73
I0
tp317
a(F1491661244.73
I0
tp318
a(F1491661244.9
I0
tp319
a(F1491661245.48
I0
tp320
a(F1491661246.39
I0
tp321
a(F1491661253.48
I0
tp322
a(F1491661264.6
I0
tp323
a(F1491661286.3
I0
tp324
a(F1491661302.02
I2
tp325
a(F1491661349.17
I0
tp326
a(F1491661356.32
I2
tp327
a(F1491661378.09
I0
tp328
a(F1491661385.28
I2
tp329
a(F1491661391.87
I2
tp330
a(F1491661392.12
I2
tp331
a(F1491661455.71
I2
tp332
a(F1491661472.48
I2
tp333
a(F1491661490.6
I0
tp334
a(F1491661490.6
I0
tp335
a(F1491661519.06
I0
tp336
a(F1491661564.98
I2
tp337
a(F1491661582.93
I2
tp338
a(F1491661597.72
I2
tp339
a(F1491661632.09
I2
tp340
a(F1491661686.33
I2
tp341
a(F1491661699.93
I0
tp342
a(F1491661701.28
I2
tp343
a(F1491661777.0
I2
tp344
a(F1491661811.94
I0
tp345
a(F1491661839.93
I2
tp346
a(F1491661852.82
I0
tp347
a(F1491661853.12
I0
tp348
a(F1491661854.75
I0
tp349
a(F1491661856.68
I0
tp350
a(F1491661885.42
I2
tp351
a(F1491661886.89
I2
tp352
a(F1491661904.36
I2
tp353
a(F1491661987.3
I2
tp354
a(F1491661994.06
I0
tp355
a(F1491661998.34
I0
tp356
a(F1491662006.62
I0
tp357
a(F1491662012.68
I2
tp358
a(F1491662013.23
I0
tp359
a(F1491662014.25
I2
tp360
a(F1491662031.59
I2
tp361
a(F1491662084.8
I2
tp362
a(F1491662127.49
I2
tp363
a(F1491662133.18
I2
tp364
a(F1491662136.46
I0
tp365
a(F1491662138.97
I0
tp366
a(F1491662142.4
I0
tp367
a(F1491662158.81
I2
tp368
a(F1491662254.93
I0
tp369
a(F1491662288.3
I2
tp370
a(F1491662332.83
I2
tp371
a(F1491662382.17
I2
tp372
a(F1491662395.99
I2
tp373
a(F1491662410.94
I0
tp374
a(F1491662411.03
I0
tp375
a(F1491662411.16
I2
tp376
a(F1491662427.16
I0
tp377
a(F1491662428.57
I2
tp378
a(F1491662536.68
I0
tp379
a(F1491662536.76
I0
tp380
a(F1491662540.0
I0
tp381
a(F1491662540.51
I0
tp382
a(F1491662547.38
I0
tp383
a(F1491662548.71
I0
tp384
a(F1491662548.72
I0
tp385
a(F1491662551.39
I0
tp386
a(F1491662552.89
I0
tp387
a(F1491662552.9
I2
tp388
a(F1491662554.65
I0
tp389
a(F1491662555.62
I0
tp390
a(F1491662557.77
I0
tp391
a(F1491662561.56
I2
tp392
a(F1491662561.7
I0
tp393
a(F1491662566.42
I0
tp394
a(F1491662566.49
I2
tp395
a(F1491662569.2
I2
tp396
a(F1491662570.73
I0
tp397
a(F1491662576.67
I0
tp398
a(F1491662578.73
I2
tp399
a(F1491662583.41
I0
tp400
a(F1491662589.26
I2
tp401
a(F1491662589.66
I2
tp402
a(F1491662635.99
I0
tp403
a(F1491662636.68
I2
tp404
a(F1491662667.75
I0
tp405
a(F1491662759.14
I2
tp406
a(F1491662764.0
I0
tp407
a(F1491662794.97
I2
tp408
a(F1491662890.26
I2
tp409
a(F1491662994.15
I0
tp410
a(F1491663030.42
I0
tp411
a(F1491663049.43
I2
tp412
a(F1491663105.03
I2
tp413
a(F1491663142.61
I0
tp414
a(F1491663176.69
I2
tp415
a(F1491663303.03
I0
tp416
a(F1491663360.76
I0
tp417
a(F1491663472.75
I2
tp418
a(F1491663487.96
I2
tp419
a(F1491663492.27
I2
tp420
a(F1491663545.52
I0
tp421
a(F1491663545.91
I0
tp422
a(F1491663548.14
I0
tp423
a(F1491663569.61
I0
tp424
a(F1491663569.66
I0
tp425
a(F1491663611.15
I2
tp426
a(F1491663621.01
I2
tp427
a(F1491663637.87
I0
tp428
a(F1491663686.25
I2
tp429
a(F1491663742.69
I2
tp430
a(F1491663792.25
I2
tp431
a(F1491663813.48
I2
tp432
a(F1491663864.68
I2
tp433
a(F1491663869.93
I2
tp434
a(F1491663944.47
I0
tp435
a(F1491664000.57
I0
tp436
a(F1491664068.81
I0
tp437
a(F1491664069.83
I0
tp438
a(F1491664070.15
I0
tp439
a(F1491664070.15
I2
tp440
a(F1491664070.19
I0
tp441
a(F1491664070.32
I0
tp442
a(F1491664070.59
I0
tp443
a(F1491664070.65
I0
tp444
a(F1491664071.93
I0
tp445
a(F1491664071.93
I0
tp446
a(F1491664071.94
I0
tp447
a(F1491664073.32
I0
tp448
a(F1491664073.68
I0
tp449
a(F1491664074.91
I0
tp450
a(F1491664074.98
I0
tp451
a(F1491664075.0
I0
tp452
a(F1491664075.13
I0
tp453
a(F1491664075.2
I0
tp454
a(F1491664075.62
I0
tp455
a(F1491664075.66
I0
tp456
a(F1491664075.91
I0
tp457
a(F1491664076.99
I0
tp458
a(F1491664077.18
I0
tp459
a(F1491664077.7
I0
tp460
a(F1491664077.72
I0
tp461
a(F1491664079.2
I0
tp462
a(F1491664079.79
I2
tp463
a(F1491664079.81
I0
tp464
a(F1491664082.36
I0
tp465
a(F1491664083.92
I0
tp466
a(F1491664084.21
I0
tp467
a(F1491664084.53
I0
tp468
a(F1491664086.8
I0
tp469
a(F1491664087.2
I0
tp470
a(F1491664089.56
I0
tp471
a(F1491664093.26
I2
tp472
a(F1491664122.54
I0
tp473
a(F1491664131.74
I2
tp474
a(F1491664134.35
I0
tp475
a(F1491664136.48
I2
tp476
a(F1491664147.82
I0
tp477
a(F1491664152.36
I0
tp478
a(F1491664154.53
I2
tp479
a(F1491664199.55
I0
tp480
a(F1491664223.99
I2
tp481
a(F1491664227.07
I0
tp482
a(F1491664230.57
I2
tp483
a(F1491664232.89
I2
tp484
a(F1491664237.3
I2
tp485
a(F1491664244.61
I0
tp486
a(F1491664280.75
I0
tp487
a(F1491664285.67
I0
tp488
a(F1491664320.7
I0
tp489
a(F1491664323.57
I2
tp490
a(F1491664323.57
I2
tp491
a(F1491664327.77
I2
tp492
a(F1491664364.23
I0
tp493
a(F1491664364.5
I0
tp494
a(F1491664364.54
I0
tp495
a(F1491664364.54
I0
tp496
a(F1491664366.15
I0
tp497
a(F1491664366.15
I0
tp498
a(F1491664366.16
I0
tp499
a(F1491664366.46
I0
tp500
a(F1491664367.05
I0
tp501
a(F1491664368.22
I0
tp502
a(F1491664368.22
I0
tp503
a(F1491664368.22
I2
tp504
a(F1491664368.22
I0
tp505
a(F1491664368.24
I0
tp506
a(F1491664368.27
I0
tp507
a(F1491664368.56
I0
tp508
a(F1491664369.69
I0
tp509
a(F1491664371.14
I0
tp510
a(F1491664371.9
I0
tp511
a(F1491664372.18
I0
tp512
a(F1491664372.44
I0
tp513
a(F1491664373.34
I0
tp514
a(F1491664373.95
I0
tp515
a(F1491664374.12
I0
tp516
a(F1491664375.24
I0
tp517
a(F1491664377.1
I0
tp518
a(F1491664377.11
I0
tp519
a(F1491664385.26
I0
tp520
a(F1491664394.33
I2
tp521
a(F1491664460.65
I2
tp522
a(F1491664463.83
I2
tp523
a(F1491664485.03
I0
tp524
a(F1491664581.22
I2
tp525
a(F1491664610.46
I2
tp526
a(F1491664695.27
I2
tp527
a(F1491664708.57
I2
tp528
a(F1491664713.11
I0
tp529
a(F1491664725.48
I2
tp530
a(F1491664792.03
I0
tp531
a(F1491664815.78
I0
tp532
a(F1491664860.08
I0
tp533
a(F1491664890.94
I0
tp534
a(F1491664905.72
I2
tp535
a(F1491664967.47
I2
tp536
a(F1491664996.28
I2
tp537
a(F1491665046.49
I2
tp538
a(F1491665083.4
I2
tp539
a(F1491665140.39
I0
tp540
a(F1491665140.43
I0
tp541
a(F1491665140.43
I0
tp542
a(F1491665140.6
I0
tp543
a(F1491665160.07
I2
tp544
a(F1491665207.5
I0
tp545
a(F1491665207.54
I0
tp546
a(F1491665207.55
I0
tp547
a(F1491665207.86
I0
tp548
a(F1491665209.89
I2
tp549
a(F1491665210.3
I0
tp550
a(F1491665214.01
I0
tp551
a(F1491665214.05
I0
tp552
a(F1491665214.18
I0
tp553
a(F1491665214.26
I0
tp554
a(F1491665214.26
I0
tp555
a(F1491665214.26
I0
tp556
a(F1491665214.28
I0
tp557
a(F1491665237.58
I0
tp558
a(F1491665244.62
I2
tp559
a(F1491665244.87
I2
tp560
a(F1491665259.79
I0
tp561
a(F1491665261.56
I0
tp562
a(F1491665261.61
I0
tp563
a(F1491665261.75
I0
tp564
a(F1491665270.33
I0
tp565
a(F1491665274.62
I0
tp566
a(F1491665274.87
I0
tp567
a(F1491665297.32
I2
tp568
a(F1491665337.76
I2
tp569
a(F1491665337.93
I0
tp570
a(F1491665357.71
I0
tp571
a(F1491665383.65
I0
tp572
a(F1491665397.3
I2
tp573
a(F1491665453.88
I2
tp574
a(F1491665487.29
I2
tp575
a(F1491665524.57
I2
tp576
a(F1491665598.27
I2
tp577
a(F1491665614.56
I2
tp578
a(F1491665648.64
I0
tp579
a(F1491665648.66
I0
tp580
a(F1491665674.78
I2
tp581
a(F1491665695.3
I2
tp582
a(F1491665702.41
I2
tp583
a(F1491665729.55
I2
tp584
a(F1491665786.91
I0
tp585
a(F1491665792.23
I0
tp586
a(F1491665792.25
I0
tp587
a(F1491665794.24
I0
tp588
a(F1491665827.6
I0
tp589
a(F1491665833.05
I0
tp590
a(F1491665838.0
I0
tp591
a(F1491665840.98
I0
tp592
a(F1491665841.81
I0
tp593
a(F1491665860.86
I2
tp594
a(F1491665861.77
I0
tp595
a(F1491665864.91
I0
tp596
a(F1491665865.33
I0
tp597
a(F1491665899.38
I2
tp598
a(F1491665931.42
I2
tp599
a(F1491665958.93
I2
tp600
a(F1491666010.86
I0
tp601
a(F1491666010.94
I0
tp602
a(F1491666011.18
I2
tp603
a(F1491666032.22
I2
tp604
a(F1491666032.85
I2
tp605
a(F1491666058.73
I2
tp606
a(F1491666159.48
I2
tp607
a(F1491666200.32
I2
tp608
a(F1491666228.2
I2
tp609
a(F1491666293.73
I2
tp610
a(F1491666360.8
I0
tp611
a(F1491666380.95
I2
tp612
a(F1491666428.87
I0
tp613
a(F1491666501.34
I2
tp614
a(F1491666541.27
I0
tp615
a(F1491666554.91
I0
tp616
a(F1491666584.21
I0
tp617
a(F1491666792.34
I2
tp618
a(F1491666795.74
I2
tp619
a(F1491666802.27
I2
tp620
a(F1491666834.73
I0
tp621
a(F1491666842.25
I0
tp622
a(F1491667081.93
I0
tp623
a(F1491667103.26
I2
tp624
a(F1491667147.77
I0
tp625
a(F1491667162.17
I0
tp626
a(F1491667211.24
I2
tp627
a(F1491667215.76
I0
tp628
a(F1491667235.41
I2
tp629
a(F1491667239.45
I2
tp630
a(F1491667253.28
I0
tp631
a(F1491667278.46
I2
tp632
a(F1491667288.25
I2
tp633
a(F1491667404.26
I2
tp634
a(F1491667415.52
I2
tp635
a(F1491667420.44
I2
tp636
a(F1491667424.97
I2
tp637
a(F1491667467.0
I2
tp638
a(F1491667519.86
I2
tp639
a(F1491667547.81
I2
tp640
a(F1491667558.71
I2
tp641
a(F1491667705.26
I2
tp642
a(F1491667727.61
I0
tp643
a(F1491667727.65
I0
tp644
a(F1491667832.85
I2
tp645
a(F1491667868.33
I2
tp646
a(F1491667889.43
I0
tp647
a(F1491668006.26
I2
tp648
a(F1491668108.34
I2
tp649
a(F1491668161.38
I2
tp650
a(F1491668246.93
I2
tp651
a(F1491668251.54
I0
tp652
a(F1491668251.54
I0
tp653
a(F1491668251.74
I0
tp654
a(F1491668252.78
I0
tp655
a(F1491668255.25
I2
tp656
a(F1491668262.38
I0
tp657
a(F1491668271.09
I2
tp658
a(F1491668272.03
I2
tp659
a(F1491668272.05
I0
tp660
a(F1491668286.24
I0
tp661
a(F1491668307.26
I2
tp662
a(F1491668411.16
I2
tp663
a(F1491668432.91
I0
tp664
a(F1491668511.55
I2
tp665
a(F1491668568.14
I0
tp666
a(F1491668608.27
I2
tp667
a(F1491668616.6
I0
tp668
a(F1491668795.93
I2
tp669
a(F1491668909.25
I2
tp670
a(F1491668912.49
I2
tp671
a(F1491668913.42
I0
tp672
a(F1491668914.25
I0
tp673
a(F1491668914.27
I0
tp674
a(F1491668930.42
I0
tp675
a(F1491668930.42
I0
tp676
a(F1491668930.45
I2
tp677
a(F1491668930.87
I0
tp678
a(F1491668983.15
I0
tp679
a(F1491669089.25
I2
tp680
a(F1491669210.25
I2
tp681
a(F1491669216.48
I2
tp682
a(F1491669343.89
I0
tp683
a(F1491669409.64
I0
tp684
a(F1491669414.31
I0
tp685
a(F1491669454.98
I0
tp686
a(F1491669455.0
I0
tp687
a(F1491669511.26
I2
tp688
a(F1491669610.95
I0
tp689
a(F1491669610.95
I0
tp690
a(F1491669611.16
I2
tp691
a(F1491669632.85
I2
tp692
a(F1491669672.69
I2
tp693
a(F1491669691.0
I0
tp694
a(F1491669698.43
I0
tp695
a(F1491669764.95
I2
tp696
a(F1491669806.61
I0
tp697
a(F1491669806.65
I0
tp698
a(F1491669812.26
I2
tp699
a(F1491669892.31
I0
tp700
a(F1491669914.32
I2
tp701
a(F1491669944.91
I0
tp702
a(F1491669987.01
I2
tp703
a(F1491670020.96
I2
tp704
a(F1491670113.26
I2
tp705
a(F1491670305.69
I0
tp706
a(F1491670401.43
I2
tp707
a(F1491670413.26
I2
tp708
a(F1491670428.82
I2
tp709
a(F1491670515.26
I2
tp710
a(F1491670649.85
I2
tp711
a(F1491670672.18
I0
tp712
a(F1491670714.26
I2
tp713
a(F1491670811.22
I2
tp714
a(F1491670890.25
I2
tp715
a(F1491670906.59
I2
tp716
a(F1491671015.26
I2
tp717
a(F1491671017.43
I2
tp718
a(F1491671156.13
I2
tp719
a(F1491671272.42
I0
tp720
a(F1491671282.28
I2
tp721
a(F1491671316.35
I2
tp722
a(F1491671432.85
I2
tp723
a(F1491671617.32
I2
tp724
a(F1491671656.32
I0
tp725
a(F1491671673.26
I0
tp726
a(F1491671681.24
I2
tp727
a(F1491671696.5
I2
tp728
a(F1491671716.49
I2
tp729
a(F1491671717.39
I0
tp730
a(F1491671717.43
I2
tp731
a(F1491671718.36
I2
tp732
a(F1491671721.59
I0
tp733
a(F1491671759.56
I0
tp734
a(F1491671786.72
I0
tp735
a(F1491671786.73
I0
tp736
a(F1491671837.63
I0
tp737
a(F1491671845.59
I2
tp738
a(F1491671883.43
I2
tp739
a(F1491671918.25
I2
tp740
a(F1491671972.43
I0
tp741
a(F1491671997.5
I2
tp742
a(F1491671999.64
I0
tp743
a(F1491671999.81
I2
tp744
a(F1491672011.19
I2
tp745
a(F1491672015.8
I0
tp746
a(F1491672157.64
I0
tp747
a(F1491672219.27
I2
tp748
a(F1491672296.04
I2
tp749
a(F1491672389.35
I2
tp750
a(F1491672423.26
I2
tp751
a(F1491672473.86
I2
tp752
a(F1491672520.26
I2
tp753
a(F1491672565.42
I2
tp754
a(F1491672599.65
I0
tp755
a(F1491672610.72
I2
tp756
a(F1491672691.25
I2
tp757
a(F1491672801.49
I0
tp758
a(F1491672801.74
I0
tp759
a(F1491672818.53
I2
tp760
a(F1491672821.25
I2
tp761
a(F1491672851.03
I2
tp762
a(F1491672930.65
I0
tp763
a(F1491672930.93
I0
tp764
a(F1491673016.2
I0
tp765
a(F1491673017.56
I0
tp766
a(F1491673036.92
I0
tp767
a(F1491673050.87
I0
tp768
a(F1491673061.63
I0
tp769
a(F1491673074.69
I0
tp770
a(F1491673083.79
I0
tp771
a(F1491673084.42
I0
tp772
a(F1491673084.68
I0
tp773
a(F1491673122.28
I2
tp774
a(F1491673133.71
I0
tp775
a(F1491673182.69
I0
tp776
a(F1491673196.07
I0
tp777
a(F1491673203.56
I0
tp778
a(F1491673203.57
I0
tp779
a(F1491673203.65
I0
tp780
a(F1491673203.71
I0
tp781
a(F1491673232.85
I2
tp782
a(F1491673280.14
I0
tp783
a(F1491673289.48
I0
tp784
a(F1491673326.89
I0
tp785
a(F1491673329.42
I2
tp786
a(F1491673333.85
I2
tp787
a(F1491673338.42
I0
tp788
a(F1491673365.14
I2
tp789
a(F1491673365.16
I2
tp790
a(F1491673365.16
I2
tp791
a(F1491673365.18
I2
tp792
a(F1491673365.18
I2
tp793
a(F1491673365.18
I2
tp794
a(F1491673365.18
I2
tp795
a(F1491673365.18
I2
tp796
a(F1491673365.19
I2
tp797
a(F1491673365.19
I2
tp798
a(F1491673365.39
I2
tp799
a(F1491673365.4
I2
tp800
a(F1491673365.4
I2
tp801
a(F1491673365.41
I2
tp802
a(F1491673365.42
I2
tp803
a(F1491673365.42
I2
tp804
a(F1491673365.42
I2
tp805
a(F1491673365.42
I2
tp806
a(F1491673365.42
I2
tp807
a(F1491673365.44
I2
tp808
a(F1491673365.44
I2
tp809
a(F1491673365.44
I2
tp810
a(F1491673365.44
I2
tp811
a(F1491673365.45
I2
tp812
a(F1491673365.45
I2
tp813
a(F1491673365.45
I2
tp814
a(F1491673365.45
I1
tp815
a(F1491673365.45
I2
tp816
a(F1491673365.45
I2
tp817
a(F1491673365.45
I2
tp818
a(F1491673365.45
I2
tp819
a(F1491673365.46
I2
tp820
a(F1491673365.47
I2
tp821
a(F1491673365.47
I2
tp822
a(F1491673365.47
I2
tp823
a(F1491673365.47
I2
tp824
a(F1491673365.47
I2
tp825
a(F1491673365.47
I2
tp826
a(F1491673365.48
I2
tp827
a(F1491673365.64
I2
tp828
a(F1491673365.64
I2
tp829
a(F1491673365.65
I2
tp830
a(F1491673365.65
I2
tp831
a(F1491673365.65
I2
tp832
a(F1491673365.66
I2
tp833
a(F1491673365.71
I2
tp834
a(F1491673365.74
I2
tp835
a(F1491673365.75
I2
tp836
a(F1491673365.78
I2
tp837
a(F1491673365.79
I2
tp838
a(F1491673365.79
I2
tp839
a(F1491673365.82
I2
tp840
a(F1491673365.82
I2
tp841
a(F1491673365.82
I2
tp842
a(F1491673365.82
I2
tp843
a(F1491673365.82
I2
tp844
a(F1491673365.82
I2
tp845
a(F1491673365.82
I2
tp846
a(F1491673365.82
I2
tp847
a(F1491673365.82
I2
tp848
a(F1491673365.82
I2
tp849
a(F1491673365.82
I2
tp850
a(F1491673365.82
I2
tp851
a(F1491673365.82
I2
tp852
a(F1491673365.82
I2
tp853
a(F1491673365.82
I2
tp854
a(F1491673365.82
I2
tp855
a(F1491673365.82
I2
tp856
a(F1491673365.82
I2
tp857
a(F1491673365.82
I2
tp858
a(F1491673365.82
I2
tp859
a(F1491673365.82
I2
tp860
a(F1491673365.82
I2
tp861
a(F1491673365.82
I2
tp862
a(F1491673365.82
I2
tp863
a(F1491673365.82
I2
tp864
a(F1491673365.82
I2
tp865
a(F1491673365.82
I2
tp866
a(F1491673365.82
I2
tp867
a(F1491673365.82
I2
tp868
a(F1491673365.82
I2
tp869
a(F1491673365.82
I2
tp870
a(F1491673365.82
I2
tp871
a(F1491673365.82
I2
tp872
a(F1491673365.82
I2
tp873
a(F1491673365.82
I2
tp874
a(F1491673365.82
I2
tp875
a(F1491673365.82
I2
tp876
a(F1491673365.82
I2
tp877
a(F1491673365.82
I2
tp878
a(F1491673365.82
I2
tp879
a(F1491673365.82
I2
tp880
a(F1491673365.82
I2
tp881
a(F1491673365.82
I2
tp882
a(F1491673365.82
I2
tp883
a(F1491673365.82
I2
tp884
a(F1491673365.82
I2
tp885
a(F1491673365.82
I2
tp886
a(F1491673365.82
I2
tp887
a(F1491673365.82
I2
tp888
a(F1491673365.82
I2
tp889
a(F1491673365.82
I2
tp890
a(F1491673365.82
I2
tp891
a(F1491673365.82
I2
tp892
a(F1491673365.82
I2
tp893
a(F1491673365.82
I2
tp894
a(F1491673365.82
I2
tp895
a(F1491673365.82
I2
tp896
a(F1491673365.82
I2
tp897
a(F1491673365.82
I2
tp898
a(F1491673365.82
I2
tp899
a(F1491673365.82
I2
tp900
a(F1491673365.82
I2
tp901
a(F1491673365.82
I2
tp902
a(F1491673365.82
I2
tp903
a(F1491673365.82
I2
tp904
a(F1491673365.82
I2
tp905
a(F1491673365.82
I2
tp906
a(F1491673365.82
I2
tp907
a(F1491673365.92
I2
tp908
a(F1491673365.92
I2
tp909
a(F1491673365.93
I2
tp910
a(F1491673365.93
I2
tp911
a(F1491673365.93
I2
tp912
a(F1491673365.94
I2
tp913
a(F1491673365.95
I2
tp914
a(F1491673365.96
I2
tp915
a(F1491673365.96
I2
tp916
a(F1491673365.96
I2
tp917
a(F1491673365.96
I2
tp918
a(F1491673365.96
I2
tp919
a(F1491673365.97
I2
tp920
a(F1491673365.97
I2
tp921
a(F1491673365.98
I2
tp922
a(F1491673365.98
I2
tp923
a(F1491673365.98
I2
tp924
a(F1491673365.98
I2
tp925
a(F1491673365.98
I2
tp926
a(F1491673365.98
I2
tp927
a(F1491673365.98
I2
tp928
a(F1491673365.98
I2
tp929
a(F1491673365.98
I2
tp930
a(F1491673365.99
I2
tp931
a(F1491673366.0
I2
tp932
a(F1491673366.03
I2
tp933
a(F1491673366.03
I2
tp934
a(F1491673366.05
I2
tp935
a(F1491673366.05
I2
tp936
a(F1491673366.05
I2
tp937
a(F1491673366.07
I2
tp938
a(F1491673366.07
I2
tp939
a(F1491673366.07
I2
tp940
a(F1491673366.07
I2
tp941
a(F1491673366.07
I2
tp942
a(F1491673366.07
I2
tp943
a(F1491673366.07
I2
tp944
a(F1491673366.07
I2
tp945
a(F1491673366.07
I2
tp946
a(F1491673366.07
I2
tp947
a(F1491673366.07
I2
tp948
a(F1491673366.07
I2
tp949
a(F1491673366.07
I2
tp950
a(F1491673366.07
I2
tp951
a(F1491673366.08
I2
tp952
a(F1491673366.08
I2
tp953
a(F1491673366.08
I2
tp954
a(F1491673366.08
I2
tp955
a(F1491673366.08
I2
tp956
a(F1491673366.08
I2
tp957
a(F1491673366.08
I2
tp958
a(F1491673366.08
I2
tp959
a(F1491673366.08
I2
tp960
a(F1491673366.08
I2
tp961
a(F1491673366.08
I2
tp962
a(F1491673366.08
I2
tp963
a(F1491673366.08
I2
tp964
a(F1491673366.08
I2
tp965
a(F1491673366.08
I2
tp966
a(F1491673366.08
I2
tp967
a(F1491673366.08
I2
tp968
a(F1491673366.12
I2
tp969
a(F1491673366.12
I2
tp970
a(F1491673366.12
I2
tp971
a(F1491673366.12
I2
tp972
a(F1491673366.12
I2
tp973
a(F1491673366.12
I2
tp974
a(F1491673366.12
I2
tp975
a(F1491673366.12
I2
tp976
a(F1491673366.12
I2
tp977
a(F1491673366.12
I2
tp978
a(F1491673366.12
I2
tp979
a(F1491673366.12
I2
tp980
a(F1491673366.12
I2
tp981
a(F1491673366.12
I2
tp982
a(F1491673366.12
I2
tp983
a(F1491673366.12
I2
tp984
a(F1491673366.12
I2
tp985
a(F1491673366.12
I2
tp986
a(F1491673366.12
I2
tp987
a(F1491673366.12
I2
tp988
a(F1491673366.12
I2
tp989
a(F1491673366.12
I2
tp990
a(F1491673366.12
I2
tp991
a(F1491673366.12
I2
tp992
a(F1491673366.12
I2
tp993
a(F1491673366.12
I2
tp994
a(F1491673366.12
I2
tp995
a(F1491673366.12
I2
tp996
a(F1491673366.12
I2
tp997
a(F1491673366.12
I2
tp998
a(F1491673366.12
I2
tp999
a(F1491673366.12
I2
tp1000
a(F1491673366.12
I2
tp1001
a(F1491673366.12
I2
tp1002
a(F1491673366.12
I2
tp1003
a(F1491673366.12
I2
tp1004
a(F1491673366.12
I2
tp1005
a(F1491673366.12
I2
tp1006
a(F1491673366.12
I2
tp1007
a(F1491673366.12
I2
tp1008
a(F1491673366.12
I2
tp1009
a(F1491673366.12
I2
tp1010
a(F1491673366.12
I2
tp1011
a(F1491673366.12
I2
tp1012
a(F1491673366.12
I2
tp1013
a(F1491673366.12
I2
tp1014
a(F1491673366.12
I2
tp1015
a(F1491673366.12
I2
tp1016
a(F1491673366.12
I2
tp1017
a(F1491673366.12
I2
tp1018
a(F1491673366.12
I2
tp1019
a(F1491673366.12
I2
tp1020
a(F1491673366.12
I2
tp1021
a(F1491673366.12
I2
tp1022
a(F1491673366.12
I2
tp1023
a(F1491673366.19
I2
tp1024
a(F1491673366.19
I2
tp1025
a(F1491673366.19
I2
tp1026
a(F1491673366.2
I2
tp1027
a(F1491673366.2
I2
tp1028
a(F1491673366.21
I2
tp1029
a(F1491673366.22
I2
tp1030
a(F1491673366.22
I2
tp1031
a(F1491673366.22
I2
tp1032
a(F1491673366.23
I2
tp1033
a(F1491673366.24
I2
tp1034
a(F1491673366.25
I2
tp1035
a(F1491673366.25
I2
tp1036
a(F1491673366.25
I2
tp1037
a(F1491673366.25
I2
tp1038
a(F1491673366.25
I2
tp1039
a(F1491673366.25
I2
tp1040
a(F1491673366.26
I2
tp1041
a(F1491673366.27
I2
tp1042
a(F1491673366.27
I2
tp1043
a(F1491673366.28
I2
tp1044
a(F1491673366.28
I2
tp1045
a(F1491673366.28
I2
tp1046
a(F1491673366.33
I2
tp1047
a(F1491673366.33
I2
tp1048
a(F1491673366.33
I2
tp1049
a(F1491673366.33
I2
tp1050
a(F1491673366.33
I2
tp1051
a(F1491673366.33
I2
tp1052
a(F1491673366.33
I2
tp1053
a(F1491673366.33
I2
tp1054
a(F1491673366.33
I2
tp1055
a(F1491673366.33
I2
tp1056
a(F1491673366.33
I2
tp1057
a(F1491673366.33
I2
tp1058
a(F1491673366.33
I2
tp1059
a(F1491673366.33
I2
tp1060
a(F1491673366.33
I2
tp1061
a(F1491673366.33
I2
tp1062
a(F1491673366.33
I2
tp1063
a(F1491673366.33
I2
tp1064
a(F1491673366.33
I2
tp1065
a(F1491673366.34
I2
tp1066
a(F1491673366.34
I2
tp1067
a(F1491673366.34
I2
tp1068
a(F1491673366.36
I2
tp1069
a(F1491673366.37
I2
tp1070
a(F1491673366.37
I2
tp1071
a(F1491673366.37
I2
tp1072
a(F1491673366.37
I2
tp1073
a(F1491673366.37
I2
tp1074
a(F1491673366.37
I2
tp1075
a(F1491673366.37
I2
tp1076
a(F1491673366.37
I2
tp1077
a(F1491673366.37
I2
tp1078
a(F1491673366.37
I2
tp1079
a(F1491673366.37
I2
tp1080
a(F1491673366.37
I2
tp1081
a(F1491673366.37
I2
tp1082
a(F1491673366.37
I2
tp1083
a(F1491673366.37
I2
tp1084
a(F1491673366.37
I2
tp1085
a(F1491673366.37
I2
tp1086
a(F1491673366.37
I2
tp1087
a(F1491673366.37
I2
tp1088
a(F1491673366.37
I2
tp1089
a(F1491673366.37
I2
tp1090
a(F1491673366.37
I2
tp1091
a(F1491673366.38
I2
tp1092
a(F1491673366.38
I2
tp1093
a(F1491673366.38
I2
tp1094
a(F1491673366.38
I2
tp1095
a(F1491673366.38
I2
tp1096
a(F1491673366.38
I2
tp1097
a(F1491673366.38
I2
tp1098
a(F1491673366.41
I2
tp1099
a(F1491673366.42
I2
tp1100
a(F1491673366.42
I2
tp1101
a(F1491673366.42
I2
tp1102
a(F1491673366.42
I2
tp1103
a(F1491673366.42
I2
tp1104
a(F1491673366.42
I2
tp1105
a(F1491673366.42
I2
tp1106
a(F1491673366.42
I2
tp1107
a(F1491673366.42
I2
tp1108
a(F1491673366.42
I2
tp1109
a(F1491673366.42
I2
tp1110
a(F1491673366.42
I2
tp1111
a(F1491673366.42
I2
tp1112
a(F1491673366.42
I2
tp1113
a(F1491673366.42
I2
tp1114
a(F1491673366.42
I2
tp1115
a(F1491673366.42
I2
tp1116
a(F1491673366.42
I2
tp1117
a(F1491673366.42
I2
tp1118
a(F1491673366.42
I2
tp1119
a(F1491673366.43
I2
tp1120
a(F1491673366.43
I2
tp1121
a(F1491673366.43
I2
tp1122
a(F1491673366.43
I2
tp1123
a(F1491673366.43
I2
tp1124
a(F1491673366.52
I2
tp1125
a(F1491673366.53
I2
tp1126
a(F1491673366.54
I2
tp1127
a(F1491673366.73
I2
tp1128
a(F1491673367.01
I2
tp1129
a(F1491673367.01
I2
tp1130
a(F1491673367.22
I2
tp1131
a(F1491673369.13
I2
tp1132
a(F1491673369.13
I2
tp1133
a(F1491673369.13
I2
tp1134
a(F1491673369.14
I2
tp1135
a(F1491673369.14
I2
tp1136
a(F1491673369.14
I2
tp1137
a(F1491673369.14
I2
tp1138
a(F1491673369.14
I2
tp1139
a(F1491673369.14
I2
tp1140
a(F1491673369.14
I2
tp1141
a(F1491673369.14
I2
tp1142
a(F1491673369.14
I2
tp1143
a(F1491673369.14
I2
tp1144
a(F1491673369.14
I2
tp1145
a(F1491673369.14
I2
tp1146
a(F1491673369.14
I2
tp1147
a(F1491673369.14
I2
tp1148
a(F1491673369.14
I2
tp1149
a(F1491673369.14
I2
tp1150
a(F1491673369.14
I2
tp1151
a(F1491673369.14
I2
tp1152
a(F1491673369.14
I2
tp1153
a(F1491673369.14
I2
tp1154
a(F1491673369.14
I2
tp1155
a(F1491673369.14
I1
tp1156
a(F1491673369.14
I2
tp1157
a(F1491673369.14
I2
tp1158
a(F1491673369.18
I2
tp1159
a(F1491673369.26
I2
tp1160
a(F1491673369.28
I2
tp1161
a(F1491673369.28
I2
tp1162
a(F1491673369.39
I2
tp1163
a(F1491673369.39
I2
tp1164
a(F1491673369.39
I2
tp1165
a(F1491673369.39
I2
tp1166
a(F1491673369.39
I2
tp1167
a(F1491673369.39
I2
tp1168
a(F1491673373.51
I2
tp1169
a(F1491673373.51
I2
tp1170
a(F1491673377.72
I0
tp1171
a(F1491673378.16
I2
tp1172
a(F1491673423.3
I2
tp1173
a(F1491673497.31
I2
tp1174
a(F1491673497.74
I2
tp1175
a(F1491673541.54
I0
tp1176
a(F1491673580.45
I0
tp1177
a(F1491673580.46
I0
tp1178
a(F1491673585.15
I0
tp1179
a(F1491673585.16
I0
tp1180
a(F1491673585.16
I0
tp1181
a(F1491673585.16
I0
tp1182
a(F1491673585.16
I0
tp1183
a(F1491673585.19
I0
tp1184
a(F1491673585.19
I0
tp1185
a(F1491673586.4
I0
tp1186
a(F1491673586.4
I0
tp1187
a(F1491673586.4
I2
tp1188
a(F1491673586.41
I0
tp1189
a(F1491673586.42
I2
tp1190
a(F1491673586.42
I0
tp1191
a(F1491673586.44
I2
tp1192
a(F1491673586.46
I0
tp1193
a(F1491673586.46
I2
tp1194
a(F1491673586.5
I0
tp1195
a(F1491673605.97
I2
tp1196
a(F1491673628.07
I0
tp1197
a(F1491673641.87
I2
tp1198
a(F1491673641.95
I2
tp1199
a(F1491673641.95
I2
tp1200
a(F1491673641.95
I2
tp1201
a(F1491673641.96
I2
tp1202
a(F1491673641.96
I0
tp1203
a(F1491673641.97
I0
tp1204
a(F1491673642.01
I2
tp1205
a(F1491673642.06
I0
tp1206
a(F1491673642.22
I0
tp1207
a(F1491673642.22
I0
tp1208
a(F1491673642.5
I2
tp1209
a(F1491673643.36
I0
tp1210
a(F1491673643.36
I0
tp1211
a(F1491673647.84
I0
tp1212
a(F1491673719.08
I2
tp1213
a(F1491673719.64
I2
tp1214
a(F1491673738.37
I0
tp1215
a(F1491673738.41
I0
tp1216
a(F1491673748.26
I2
tp1217
a(F1491673897.36
I0
tp1218
a(F1491673897.36
I0
tp1219
a(F1491673911.2
I0
tp1220
a(F1491671093.31
I0
tp1221
a(F1491671093.31
I0
tp1222
a(F1491671098.32
I2
tp1223
a(F1491671107.51
I0
tp1224
a(F1491671108.49
I2
tp1225
a(F1491671108.79
I2
tp1226
a(F1491671140.34
I2
tp1227
a(F1491671140.84
I2
tp1228
a(F1491671149.54
I0
tp1229
a(F1491671149.55
I0
tp1230
a(F1491638752.0
I2
tp1231
a(F1491638771.13
I0
tp1232
a(F1491657990.3
I0
tp1233
a(F1491657990.32
I0
tp1234
a(F1491657996.2
I0
tp1235
a(F1491658006.55
I0
tp1236
a(F1491658009.16
I0
tp1237
a(F1491658011.7
I2
tp1238
a(F1491658053.2
I0
tp1239
a(F1491658053.23
I0
tp1240
a(F1491658148.26
I0
tp1241
a(F1491658148.26
I0
tp1242
a(F1491658150.58
I0
tp1243
a(F1491658165.82
I0
tp1244
a(F1491658300.26
I0
tp1245
a(F1491658307.25
I0
tp1246
a(F1491658307.25
I0
tp1247
a(F1491658360.59
I0
tp1248
a(F1491658377.54
I2
tp1249
a(F1491658382.19
I0
tp1250
a(F1491658458.6
I2
tp1251
a(F1491658499.21
I2
tp1252
a(F1491658594.21
I0
tp1253
a(F1491658594.22
I0
tp1254
a(F1491658627.23
I0
tp1255
a(F1491658666.07
I0
tp1256
a(F1491658773.57
I0
tp1257
a(F1491658774.39
I0
tp1258
a(F1491658979.38
I2
tp1259
a(F1491659012.49
I0
tp1260
a(F1491659024.83
I0
tp1261
a(F1491659111.32
I0
tp1262
a(F1491659137.24
I0
tp1263
a(F1491659137.24
I0
tp1264
a(F1491659219.05
I0
tp1265
a(F1491659233.48
I0
tp1266
a(F1491659292.98
I0
tp1267
a(F1491659409.37
I0
tp1268
a(F1491659409.39
I0
tp1269
a(F1491659409.4
I0
tp1270
a(F1491659409.41
I2
tp1271
a(F1491659409.43
I2
tp1272
a(F1491659409.43
I2
tp1273
a(F1491659409.44
I0
tp1274
a(F1491659409.47
I0
tp1275
a(F1491659409.48
I0
tp1276
a(F1491659510.48
I2
tp1277
a(F1491659577.64
I2
tp1278
a(F1491659593.47
I0
tp1279
a(F1491659611.51
I0
tp1280
a(F1491659728.8
I2
tp1281
a(F1491659740.02
I0
tp1282
a(F1491659747.87
I0
tp1283
a(F1491659831.74
I0
tp1284
a(F1491659833.43
I0
tp1285
a(F1491659861.75
I0
tp1286
a(F1491660106.14
I0
tp1287
a(F1491660111.91
I0
tp1288
a(F1491660192.2
I0
tp1289
a(F1491660192.2
I0
tp1290
a(F1491660259.59
I2
tp1291
a(F1491660362.04
I0
tp1292
a(F1491660461.82
I0
tp1293
a(F1491660612.7
I0
tp1294
a(F1491660643.83
I0
tp1295
a(F1491660673.49
I0
tp1296
a(F1491660681.42
I2
tp1297
a(F1491660777.21
I0
tp1298
a(F1491660777.21
I0
tp1299
a(F1491660777.49
I2
tp1300
a(F1491660778.05
I0
tp1301
a(F1491660781.66
I0
tp1302
a(F1491660785.74
I0
tp1303
a(F1491660785.74
I0
tp1304
a(F1491660786.11
I0
tp1305
a(F1491660786.11
I0
tp1306
a(F1491660786.38
I0
tp1307
a(F1491660789.21
I0
tp1308
a(F1491660789.25
I0
tp1309
a(F1491660789.56
I0
tp1310
a(F1491660799.3
I2
tp1311
a(F1491660841.66
I0
tp1312
a(F1491660862.47
I0
tp1313
a(F1491660913.38
I0
tp1314
a(F1491660969.06
I0
tp1315
a(F1491660970.17
I0
tp1316
a(F1491661064.31
I0
tp1317
a(F1491661074.19
I0
tp1318
a(F1491661074.21
I0
tp1319
a(F1491661074.23
I2
tp1320
a(F1491661074.23
I0
tp1321
a(F1491661074.27
I0
tp1322
a(F1491661074.37
I0
tp1323
a(F1491661074.79
I2
tp1324
a(F1491661075.59
I0
tp1325
a(F1491661077.54
I0
tp1326
a(F1491661079.1
I0
tp1327
a(F1491661129.19
I0
tp1328
a(F1491661129.77
I2
tp1329
a(F1491661130.5
I0
tp1330
a(F1491661155.87
I2
tp1331
a(F1491661305.86
I0
tp1332
a(F1491661510.34
I0
tp1333
a(F1491661596.13
I0
tp1334
a(F1491661753.43
I0
tp1335
a(F1491661815.0
I2
tp1336
a(F1491661841.61
I0
tp1337
a(F1491661853.53
I0
tp1338
a(F1491661858.77
I0
tp1339
a(F1491661860.61
I0
tp1340
a(F1491661866.41
I0
tp1341
a(F1491661866.42
I0
tp1342
a(F1491661867.11
I0
tp1343
a(F1491661877.15
I0
tp1344
a(F1491661902.81
I0
tp1345
a(F1491661905.83
I0
tp1346
a(F1491661977.44
I2
tp1347
a(F1491662003.78
I0
tp1348
a(F1491662017.07
I0
tp1349
a(F1491662060.61
I2
tp1350
a(F1491662106.99
I0
tp1351
a(F1491662111.15
I2
tp1352
a(F1491662113.8
I0
tp1353
a(F1491662271.21
I0
tp1354
a(F1491662322.02
I0
tp1355
a(F1491662322.08
I0
tp1356
a(F1491662361.11
I0
tp1357
a(F1491662368.01
I2
tp1358
a(F1491662470.36
I0
tp1359
a(F1491662478.0
I0
tp1360
a(F1491662478.25
I0
tp1361
a(F1491662599.22
I2
tp1362
a(F1491662829.7
I0
tp1363
a(F1491662830.25
I0
tp1364
a(F1491662893.5
I2
tp1365
a(F1491662907.85
I0
tp1366
a(F1491663164.64
I0
tp1367
a(F1491663170.71
I0
tp1368
a(F1491663177.53
I2
tp1369
a(F1491663182.19
I0
tp1370
a(F1491663193.32
I0
tp1371
a(F1491663347.61
I0
tp1372
a(F1491663352.31
I0
tp1373
a(F1491663420.84
I0
tp1374
a(F1491663534.3
I0
tp1375
a(F1491663547.37
I0
tp1376
a(F1491663609.68
I0
tp1377
a(F1491663612.48
I0
tp1378
a(F1491663641.28
I0
tp1379
a(F1491663703.57
I0
tp1380
a(F1491663729.57
I0
tp1381
a(F1491663807.7
I0
tp1382
a(F1491663861.61
I2
tp1383
a(F1491663898.83
I0
tp1384
a(F1491663960.87
I0
tp1385
a(F1491663976.96
I0
tp1386
a(F1491664007.12
I2
tp1387
a(F1491664007.51
I0
tp1388
a(F1491664030.36
I0
tp1389
a(F1491664185.64
I0
tp1390
a(F1491664223.52
I2
tp1391
a(F1491664250.35
I0
tp1392
a(F1491664350.2
I0
tp1393
a(F1491664350.2
I0
tp1394
a(F1491664377.28
I0
tp1395
a(F1491664377.47
I0
tp1396
a(F1491664377.62
I2
tp1397
a(F1491664390.27
I0
tp1398
a(F1491664399.22
I2
tp1399
a(F1491664549.75
I0
tp1400
a(F1491664606.67
I0
tp1401
a(F1491664685.29
I0
tp1402
a(F1491664784.24
I0
tp1403
a(F1491664829.21
I0
tp1404
a(F1491664873.23
I0
tp1405
a(F1491664914.28
I0
tp1406
a(F1491664931.3
I2
tp1407
a(F1491664940.28
I0
tp1408
a(F1491665110.32
I0
tp1409
a(F1491665234.95
I2
tp1410
a(F1491665252.81
I0
tp1411
a(F1491665263.18
I0
tp1412
a(F1491665265.8
I0
tp1413
a(F1491665382.96
I0
tp1414
a(F1491665470.1
I0
tp1415
a(F1491665535.04
I2
tp1416
a(F1491665577.49
I2
tp1417
a(F1491665582.08
I0
tp1418
a(F1491665619.58
I2
tp1419
a(F1491665643.3
I0
tp1420
a(F1491665662.6
I2
tp1421
a(F1491665757.89
I0
tp1422
a(F1491665773.0
I0
tp1423
a(F1491665799.46
I0
tp1424
a(F1491665809.69
I0
tp1425
a(F1491665811.19
I0
tp1426
a(F1491665834.93
I2
tp1427
a(F1491665836.88
I2
tp1428
a(F1491665837.31
I0
tp1429
a(F1491665851.6
I0
tp1430
a(F1491665862.71
I0
tp1431
a(F1491665862.79
I0
tp1432
a(F1491665862.96
I0
tp1433
a(F1491665953.21
I0
tp1434
a(F1491666105.19
I0
tp1435
a(F1491666134.96
I2
tp1436
a(F1491666199.21
I2
tp1437
a(F1491666310.21
I0
tp1438
a(F1491666429.2
I0
tp1439
a(F1491666464.86
I0
tp1440
a(F1491666609.17
I2
tp1441
a(F1491666673.04
I0
tp1442
a(F1491666734.93
I2
tp1443
a(F1491666777.56
I2
tp1444
a(F1491666910.03
I0
tp1445
a(F1491667034.94
I2
tp1446
a(F1491667035.11
I2
tp1447
a(F1491667153.07
I0
tp1448
a(F1491667159.74
I0
tp1449
a(F1491667159.75
I0
tp1450
a(F1491667160.74
I0
tp1451
a(F1491667170.27
I0
tp1452
a(F1491667170.28
I0
tp1453
a(F1491667334.94
I2
tp1454
a(F1491667392.99
I0
tp1455
a(F1491667463.59
I2
tp1456
a(F1491667601.56
I2
tp1457
a(F1491667630.0
I0
tp1458
a(F1491667634.94
I2
tp1459
a(F1491667748.78
I2
tp1460
a(F1491667749.17
I0
tp1461
a(F1491667934.94
I2
tp1462
a(F1491667977.26
I0
tp1463
a(F1491667977.37
I0
tp1464
a(F1491667977.57
I2
tp1465
a(F1491667993.03
I0
tp1466
a(F1491667999.21
I2
tp1467
a(F1491668229.96
I0
tp1468
a(F1491668234.96
I2
tp1469
a(F1491668508.2
I0
tp1470
a(F1491668508.25
I0
tp1471
a(F1491668534.99
I2
tp1472
a(F1491668589.92
I0
tp1473
a(F1491668705.29
I2
tp1474
a(F1491668834.95
I2
tp1475
a(F1491668949.89
I0
tp1476
a(F1491669134.95
I2
tp1477
a(F1491669177.44
I2
tp1478
a(F1491669264.67
I2
tp1479
a(F1491669275.77
I2
tp1480
a(F1491669309.88
I0
tp1481
a(F1491669418.67
I2
tp1482
a(F1491669429.81
I2
tp1483
a(F1491669430.96
I2
tp1484
a(F1491669431.45
I0
tp1485
a(F1491669431.45
I0
tp1486
a(F1491669432.87
I2
tp1487
a(F1491669432.88
I0
tp1488
a(F1491669432.88
I0
tp1489
a(F1491669432.88
I0
tp1490
a(F1491669432.88
I0
tp1491
a(F1491669432.88
I0
tp1492
a(F1491669432.91
I0
tp1493
a(F1491669432.94
I0
tp1494
a(F1491669432.94
I0
tp1495
a(F1491669434.24
I2
tp1496
a(F1491669437.14
I0
tp1497
a(F1491669437.14
I0
tp1498
a(F1491669437.14
I0
tp1499
a(F1491669437.14
I0
tp1500
a(F1491669437.14
I0
tp1501
a(F1491669437.14
I2
tp1502
a(F1491669437.2
I0
tp1503
a(F1491669437.2
I2
tp1504
a(F1491669438.63
I2
tp1505
a(F1491669440.07
I0
tp1506
a(F1491669475.7
I0
tp1507
a(F1491669499.2
I2
tp1508
a(F1491669520.26
I0
tp1509
a(F1491669521.22
I2
tp1510
a(F1491669521.22
I0
tp1511
a(F1491669521.32
I0
tp1512
a(F1491669521.32
I0
tp1513
a(F1491669521.32
I0
tp1514
a(F1491669521.54
I0
tp1515
a(F1491669526.97
I0
tp1516
a(F1491669528.12
I0
tp1517
a(F1491669528.26
I2
tp1518
a(F1491669544.9
I0
tp1519
a(F1491669669.86
I0
tp1520
a(F1491669712.06
I0
tp1521
a(F1491669722.55
I0
tp1522
a(F1491669725.89
I0
tp1523
a(F1491669735.95
I0
tp1524
a(F1491669741.73
I0
tp1525
a(F1491669747.15
I0
tp1526
a(F1491669757.14
I2
tp1527
a(F1491669757.72
I0
tp1528
a(F1491669770.77
I0
tp1529
a(F1491669773.33
I0
tp1530
a(F1491669773.49
I0
tp1531
a(F1491669782.18
I0
tp1532
a(F1491669782.19
I0
tp1533
a(F1491669782.19
I0
tp1534
a(F1491669782.2
I0
tp1535
a(F1491669782.25
I0
tp1536
a(F1491669787.68
I0
tp1537
a(F1491669787.68
I2
tp1538
a(F1491669787.68
I0
tp1539
a(F1491669787.68
I0
tp1540
a(F1491669787.68
I0
tp1541
a(F1491669787.68
I0
tp1542
a(F1491669787.68
I2
tp1543
a(F1491669787.68
I0
tp1544
a(F1491669787.68
I0
tp1545
a(F1491669787.68
I0
tp1546
a(F1491669788.37
I0
tp1547
a(F1491669788.37
I0
tp1548
a(F1491669788.37
I2
tp1549
a(F1491669788.52
I0
tp1550
a(F1491669788.53
I0
tp1551
a(F1491669788.56
I2
tp1552
a(F1491669788.93
I2
tp1553
a(F1491669788.93
I2
tp1554
a(F1491669791.27
I0
tp1555
a(F1491669792.69
I0
tp1556
a(F1491669792.69
I2
tp1557
a(F1491669793.6
I0
tp1558
a(F1491669796.04
I2
tp1559
a(F1491669797.33
I0
tp1560
a(F1491669797.36
I0
tp1561
a(F1491669797.47
I0
tp1562
a(F1491669797.47
I0
tp1563
a(F1491669797.47
I0
tp1564
a(F1491669797.7
I0
tp1565
a(F1491669798.98
I0
tp1566
a(F1491669801.34
I0
tp1567
a(F1491669801.63
I2
tp1568
a(F1491669802.37
I0
tp1569
a(F1491669802.42
I2
tp1570
a(F1491669802.51
I0
tp1571
a(F1491669802.78
I0
tp1572
a(F1491669804.98
I0
tp1573
a(F1491669807.19
I0
tp1574
a(F1491669808.59
I2
tp1575
a(F1491669810.27
I0
tp1576
a(F1491669810.28
I0
tp1577
a(F1491669810.31
I0
tp1578
a(F1491669810.72
I0
tp1579
a(F1491669855.26
I0
tp1580
a(F1491670022.17
I0
tp1581
a(F1491670032.93
I0
tp1582
a(F1491670034.99
I0
tp1583
a(F1491670039.58
I0
tp1584
a(F1491670039.66
I0
tp1585
a(F1491670039.82
I0
tp1586
a(F1491670040.02
I0
tp1587
a(F1491670040.08
I0
tp1588
a(F1491670040.28
I2
tp1589
a(F1491670040.28
I2
tp1590
a(F1491670040.49
I0
tp1591
a(F1491670041.33
I2
tp1592
a(F1491670049.3
I0
tp1593
a(F1491670050.13
I2
tp1594
a(F1491670056.55
I0
tp1595
a(F1491670061.87
I0
tp1596
a(F1491670062.49
I0
tp1597
a(F1491670095.87
I0
tp1598
a(F1491670106.33
I0
tp1599
a(F1491670106.42
I0
tp1600
a(F1491670269.84
I0
tp1601
a(F1491670273.56
I0
tp1602
a(F1491670275.88
I2
tp1603
a(F1491670286.92
I2
tp1604
a(F1491670291.11
I2
tp1605
a(F1491670291.12
I2
tp1606
a(F1491670291.12
I2
tp1607
a(F1491670291.12
I2
tp1608
a(F1491670291.12
I2
tp1609
a(F1491670291.12
I2
tp1610
a(F1491670291.13
I2
tp1611
a(F1491670291.13
I2
tp1612
a(F1491670292.9
I2
tp1613
a(F1491670297.16
I2
tp1614
a(F1491670299.23
I2
tp1615
a(F1491670299.23
I2
tp1616
a(F1491670301.42
I2
tp1617
a(F1491670302.28
I2
tp1618
a(F1491670302.65
I2
tp1619
a(F1491670308.25
I0
tp1620
a(F1491670308.72
I2
tp1621
a(F1491670309.21
I0
tp1622
a(F1491670309.21
I0
tp1623
a(F1491670309.36
I0
tp1624
a(F1491670309.36
I0
tp1625
a(F1491670309.97
I2
tp1626
a(F1491670310.61
I0
tp1627
a(F1491670311.04
I0
tp1628
a(F1491670311.04
I0
tp1629
a(F1491670311.04
I0
tp1630
a(F1491670311.12
I0
tp1631
a(F1491670311.42
I0
tp1632
a(F1491670311.46
I0
tp1633
a(F1491670311.46
I0
tp1634
a(F1491670311.49
I0
tp1635
a(F1491670311.59
I0
tp1636
a(F1491670311.91
I0
tp1637
a(F1491670312.27
I0
tp1638
a(F1491670312.27
I0
tp1639
a(F1491670312.36
I0
tp1640
a(F1491670312.38
I0
tp1641
a(F1491670312.49
I2
tp1642
a(F1491670314.08
I0
tp1643
a(F1491670314.1
I0
tp1644
a(F1491670314.25
I2
tp1645
a(F1491670314.73
I0
tp1646
a(F1491670314.83
I0
tp1647
a(F1491670314.83
I0
tp1648
a(F1491670314.87
I0
tp1649
a(F1491670314.99
I0
tp1650
a(F1491670317.64
I0
tp1651
a(F1491670320.18
I0
tp1652
a(F1491670320.24
I0
tp1653
a(F1491670321.74
I0
tp1654
a(F1491670321.74
I0
tp1655
a(F1491670325.6
I0
tp1656
a(F1491670326.2
I0
tp1657
a(F1491670326.2
I0
tp1658
a(F1491670327.21
I0
tp1659
a(F1491670330.08
I0
tp1660
a(F1491670330.08
I0
tp1661
a(F1491670330.1
I0
tp1662
a(F1491670330.59
I0
tp1663
a(F1491670330.6
I0
tp1664
a(F1491670330.86
I0
tp1665
a(F1491670358.28
I0
tp1666
a(F1491670363.66
I2
tp1667
a(F1491670364.03
I0
tp1668
a(F1491670376.61
I0
tp1669
a(F1491670377.42
I2
tp1670
a(F1491670382.09
I0
tp1671
a(F1491670422.8
I0
tp1672
a(F1491670452.2
I0
tp1673
a(F1491670472.61
I2
tp1674
a(F1491670475.05
I0
tp1675
a(F1491670501.65
I0
tp1676
a(F1491670501.69
I0
tp1677
a(F1491670537.6
I2
tp1678
a(F1491670565.63
I0
tp1679
a(F1491670587.21
I0
tp1680
a(F1491670587.21
I0
tp1681
a(F1491670589.6
I2
tp1682
a(F1491670592.94
I2
tp1683
a(F1491670601.84
I2
tp1684
a(F1491670601.98
I2
tp1685
a(F1491670604.56
I2
tp1686
a(F1491670604.69
I2
tp1687
a(F1491670610.72
I0
tp1688
a(F1491670614.83
I2
tp1689
a(F1491670614.83
I2
tp1690
a(F1491670614.84
I2
tp1691
a(F1491670614.84
I2
tp1692
a(F1491670614.84
I2
tp1693
a(F1491670614.84
I2
tp1694
a(F1491670615.91
I0
tp1695
a(F1491670616.1
I0
tp1696
a(F1491670616.1
I2
tp1697
a(F1491670616.1
I2
tp1698
a(F1491670616.1
I0
tp1699
a(F1491670616.11
I0
tp1700
a(F1491670616.11
I0
tp1701
a(F1491670616.16
I0
tp1702
a(F1491670616.34
I0
tp1703
a(F1491670617.8
I0
tp1704
a(F1491670619.07
I0
tp1705
a(F1491670619.07
I0
tp1706
a(F1491670619.15
I0
tp1707
a(F1491670619.37
I0
tp1708
a(F1491670620.44
I0
tp1709
a(F1491670620.44
I0
tp1710
a(F1491670620.44
I0
tp1711
a(F1491670620.54
I0
tp1712
a(F1491670621.26
I0
tp1713
a(F1491670623.0
I0
tp1714
a(F1491670623.04
I0
tp1715
a(F1491670623.09
I0
tp1716
a(F1491670623.27
I0
tp1717
a(F1491670623.7
I0
tp1718
a(F1491670623.7
I0
tp1719
a(F1491670623.7
I0
tp1720
a(F1491670623.71
I0
tp1721
a(F1491670623.86
I0
tp1722
a(F1491670629.62
I0
tp1723
a(F1491670632.83
I0
tp1724
a(F1491670659.54
I0
tp1725
a(F1491670668.19
I2
tp1726
a(F1491670678.44
I0
tp1727
a(F1491670695.63
I0
tp1728
a(F1491670716.15
I0
tp1729
a(F1491670722.22
I0
tp1730
a(F1491670747.61
I0
tp1731
a(F1491670758.68
I0
tp1732
a(F1491670758.75
I0
tp1733
a(F1491670759.62
I0
tp1734
a(F1491670766.96
I2
tp1735
a(F1491670800.65
I2
tp1736
a(F1491670823.65
I0
tp1737
a(F1491670877.67
I2
tp1738
a(F1491670912.6
I2
tp1739
a(F1491670953.71
I0
tp1740
a(F1491670966.47
I0
tp1741
a(F1491670978.12
I2
tp1742
a(F1491670992.79
I0
tp1743
a(F1491671004.7
I0
tp1744
a(F1491671011.39
I0
tp1745
a(F1491671018.11
I0
tp1746
a(F1491671018.68
I0
tp1747
a(F1491671029.19
I2
tp1748
a(F1491671065.59
I2
tp1749
a(F1491671079.66
I0
tp1750
aaa(lp1751
S'172.16.68.30'
p1752
a(lp1753
(F1491656166.09
I2
tp1754
a(F1491656166.18
I2
tp1755
a(F1491656166.18
I2
tp1756
a(F1491656167.13
I2
tp1757
a(F1491656174.46
I2
tp1758
a(F1491656185.23
I2
tp1759
a(F1491656188.13
I2
tp1760
a(F1491656201.28
I0
tp1761
a(F1491656219.42
I2
tp1762
a(F1491656251.55
I0
tp1763
a(F1491656253.75
I2
tp1764
a(F1491656253.75
I2
tp1765
a(F1491656258.0
I0
tp1766
a(F1491656261.59
I0
tp1767
a(F1491656272.99
I0
tp1768
a(F1491656277.11
I0
tp1769
a(F1491656277.11
I0
tp1770
a(F1491656299.32
I2
tp1771
a(F1491656299.33
I2
tp1772
a(F1491656303.51
I2
tp1773
a(F1491656304.28
I0
tp1774
a(F1491656307.16
I2
tp1775
a(F1491656308.27
I2
tp1776
a(F1491656308.28
I2
tp1777
a(F1491656310.51
I0
tp1778
a(F1491656315.55
I0
tp1779
a(F1491656327.28
I0
tp1780
a(F1491656327.46
I2
tp1781
a(F1491656335.64
I0
tp1782
a(F1491656344.99
I2
tp1783
a(F1491656389.36
I2
tp1784
a(F1491656393.78
I2
tp1785
a(F1491656403.47
I0
tp1786
a(F1491656410.97
I2
tp1787
a(F1491656428.19
I0
tp1788
a(F1491656432.08
I2
tp1789
a(F1491656452.69
I0
tp1790
a(F1491656452.8
I0
tp1791
a(F1491656452.86
I0
tp1792
a(F1491656452.96
I0
tp1793
a(F1491656453.3
I2
tp1794
a(F1491656454.92
I2
tp1795
a(F1491656457.08
I2
tp1796
a(F1491656458.09
I0
tp1797
a(F1491656468.26
I0
tp1798
a(F1491656468.28
I0
tp1799
a(F1491656468.53
I2
tp1800
a(F1491656468.78
I0
tp1801
a(F1491656473.29
I0
tp1802
a(F1491656482.06
I0
tp1803
a(F1491656482.94
I2
tp1804
a(F1491656484.75
I0
tp1805
a(F1491656484.79
I2
tp1806
a(F1491656485.66
I2
tp1807
a(F1491656489.04
I0
tp1808
a(F1491656490.81
I0
tp1809
a(F1491656490.95
I0
tp1810
a(F1491656494.61
I2
tp1811
a(F1491656499.76
I0
tp1812
a(F1491656504.57
I2
tp1813
a(F1491656515.64
I2
tp1814
a(F1491656516.57
I0
tp1815
a(F1491656521.25
I0
tp1816
a(F1491656521.26
I2
tp1817
a(F1491656524.44
I0
tp1818
a(F1491656526.61
I2
tp1819
a(F1491656526.63
I2
tp1820
a(F1491656530.48
I0
tp1821
a(F1491656537.72
I2
tp1822
a(F1491656579.95
I2
tp1823
a(F1491656580.14
I0
tp1824
a(F1491656580.44
I2
tp1825
a(F1491656582.06
I0
tp1826
a(F1491656588.5
I0
tp1827
a(F1491656590.11
I0
tp1828
a(F1491656590.14
I0
tp1829
a(F1491656590.18
I2
tp1830
a(F1491656593.6
I0
tp1831
a(F1491656594.35
I2
tp1832
a(F1491656594.39
I0
tp1833
a(F1491656600.19
I0
tp1834
a(F1491656601.28
I2
tp1835
a(F1491656603.06
I0
tp1836
a(F1491656605.0
I0
tp1837
a(F1491656607.42
I2
tp1838
a(F1491656611.85
I2
tp1839
a(F1491656618.93
I0
tp1840
a(F1491656619.25
I0
tp1841
a(F1491656619.26
I2
tp1842
a(F1491656620.36
I0
tp1843
a(F1491656623.74
I0
tp1844
a(F1491656631.15
I2
tp1845
a(F1491656633.87
I0
tp1846
a(F1491656637.46
I0
tp1847
a(F1491656640.56
I2
tp1848
a(F1491656644.3
I2
tp1849
a(F1491656663.47
I2
tp1850
a(F1491656663.47
I2
tp1851
a(F1491656663.63
I0
tp1852
a(F1491656668.19
I0
tp1853
a(F1491656668.2
I0
tp1854
a(F1491656689.85
I0
tp1855
a(F1491656706.98
I0
tp1856
a(F1491656709.27
I0
tp1857
a(F1491656720.18
I0
tp1858
a(F1491656726.82
I0
tp1859
a(F1491656746.98
I0
tp1860
a(F1491656750.36
I0
tp1861
a(F1491656893.52
I2
tp1862
a(F1491656905.17
I0
tp1863
a(F1491656940.27
I0
tp1864
a(F1491656981.58
I0
tp1865
a(F1491656981.58
I0
tp1866
a(F1491657013.74
I2
tp1867
a(F1491657047.37
I2
tp1868
a(F1491657054.4
I0
tp1869
a(F1491657067.14
I0
tp1870
a(F1491657067.74
I2
tp1871
a(F1491657125.75
I0
tp1872
a(F1491657147.06
I2
tp1873
a(F1491657148.15
I0
tp1874
a(F1491657179.41
I2
tp1875
a(F1491657294.42
I2
tp1876
a(F1491657332.69
I0
tp1877
a(F1491657388.15
I0
tp1878
a(F1491657417.91
I2
tp1879
a(F1491657476.96
I2
tp1880
a(F1491657478.81
I2
tp1881
a(F1491657552.85
I2
tp1882
a(F1491657604.31
I2
tp1883
a(F1491657628.13
I0
tp1884
a(F1491657655.62
I2
tp1885
a(F1491657680.1
I2
tp1886
a(F1491657710.79
I0
tp1887
a(F1491657731.55
I2
tp1888
a(F1491657738.32
I0
tp1889
a(F1491657773.58
I2
tp1890
a(F1491657802.58
I0
tp1891
a(F1491657802.58
I2
tp1892
a(F1491657807.09
I2
tp1893
a(F1491657807.44
I2
tp1894
a(F1491657868.13
I0
tp1895
a(F1491657868.14
I0
tp1896
a(F1491657926.32
I2
tp1897
a(F1491657927.07
I0
tp1898
a(F1491657932.58
I0
tp1899
a(F1491657986.01
I2
tp1900
a(F1491657991.23
I2
tp1901
a(F1491657991.66
I0
tp1902
a(F1491658028.32
I0
tp1903
a(F1491658061.93
I2
tp1904
a(F1491658069.34
I0
tp1905
a(F1491658069.36
I0
tp1906
a(F1491658069.37
I0
tp1907
a(F1491658069.42
I0
tp1908
a(F1491658069.5
I0
tp1909
a(F1491658069.53
I0
tp1910
a(F1491658069.61
I0
tp1911
a(F1491658072.0
I2
tp1912
a(F1491658072.04
I2
tp1913
a(F1491658072.1
I0
tp1914
a(F1491658072.14
I0
tp1915
a(F1491658072.19
I0
tp1916
a(F1491658072.27
I0
tp1917
a(F1491658072.3
I0
tp1918
a(F1491658072.35
I0
tp1919
a(F1491658072.38
I0
tp1920
a(F1491658072.5
I0
tp1921
a(F1491658073.2
I0
tp1922
a(F1491658075.1
I0
tp1923
a(F1491658076.07
I0
tp1924
a(F1491658077.95
I0
tp1925
a(F1491658091.9
I2
tp1926
a(F1491658094.42
I0
tp1927
a(F1491658096.97
I0
tp1928
a(F1491658097.07
I0
tp1929
a(F1491658097.12
I0
tp1930
a(F1491658097.9
I0
tp1931
a(F1491658099.38
I0
tp1932
a(F1491658100.25
I2
tp1933
a(F1491658100.26
I2
tp1934
a(F1491658100.39
I2
tp1935
a(F1491658100.44
I2
tp1936
a(F1491658100.77
I0
tp1937
a(F1491658105.15
I0
tp1938
a(F1491658113.25
I2
tp1939
a(F1491658169.69
I2
tp1940
a(F1491658189.29
I2
tp1941
a(F1491658189.35
I0
tp1942
a(F1491658227.0
I2
tp1943
a(F1491658284.29
I2
tp1944
a(F1491658316.51
I2
tp1945
a(F1491658363.72
I2
tp1946
a(F1491658412.48
I2
tp1947
a(F1491658438.04
I0
tp1948
a(F1491658489.4
I2
tp1949
a(F1491658570.97
I2
tp1950
a(F1491658585.1
I0
tp1951
a(F1491658643.38
I2
tp1952
a(F1491658665.24
I0
tp1953
a(F1491658665.55
I0
tp1954
a(F1491658676.34
I2
tp1955
a(F1491658729.3
I2
tp1956
a(F1491658729.58
I2
tp1957
a(F1491658764.44
I2
tp1958
a(F1491658787.33
I2
tp1959
a(F1491658811.08
I0
tp1960
a(F1491658825.1
I0
tp1961
a(F1491658839.17
I2
tp1962
a(F1491658869.85
I0
tp1963
a(F1491658884.96
I2
tp1964
a(F1491658934.71
I2
tp1965
a(F1491658977.29
I2
tp1966
a(F1491659041.05
I0
tp1967
a(F1491659068.05
I0
tp1968
a(F1491659086.4
I2
tp1969
a(F1491659111.38
I2
tp1970
a(F1491659127.88
I0
tp1971
a(F1491659144.87
I2
tp1972
a(F1491659200.27
I2
tp1973
a(F1491659200.78
I2
tp1974
a(F1491659225.69
I0
tp1975
a(F1491659238.62
I0
tp1976
a(F1491659278.34
I2
tp1977
a(F1491659305.04
I0
tp1978
a(F1491659355.26
I2
tp1979
a(F1491659406.21
I2
tp1980
a(F1491659433.46
I0
tp1981
a(F1491659470.44
I0
tp1982
a(F1491659478.53
I2
tp1983
a(F1491659576.79
I2
tp1984
a(F1491659579.29
I2
tp1985
a(F1491659609.81
I2
tp1986
a(F1491659737.31
I2
tp1987
a(F1491659768.34
I0
tp1988
a(F1491659810.27
I0
tp1989
a(F1491659822.53
I2
tp1990
a(F1491659845.83
I0
tp1991
a(F1491659846.31
I0
tp1992
a(F1491659846.5
I0
tp1993
a(F1491659846.94
I0
tp1994
a(F1491659847.47
I0
tp1995
a(F1491659848.82
I0
tp1996
a(F1491659849.33
I0
tp1997
a(F1491659849.35
I0
tp1998
a(F1491659851.43
I0
tp1999
a(F1491659851.44
I0
tp2000
a(F1491659852.49
I0
tp2001
a(F1491659860.03
I0
tp2002
a(F1491659860.07
I0
tp2003
a(F1491659861.82
I0
tp2004
a(F1491659862.27
I0
tp2005
a(F1491659862.45
I0
tp2006
a(F1491659862.47
I0
tp2007
a(F1491659862.49
I0
tp2008
a(F1491659862.5
I0
tp2009
a(F1491659862.5
I0
tp2010
a(F1491659862.51
I2
tp2011
a(F1491659862.84
I0
tp2012
a(F1491659863.23
I0
tp2013
a(F1491659863.38
I0
tp2014
a(F1491659863.58
I0
tp2015
a(F1491659864.28
I0
tp2016
a(F1491659864.54
I2
tp2017
a(F1491659869.35
I0
tp2018
a(F1491659869.36
I0
tp2019
a(F1491659869.4
I0
tp2020
a(F1491659869.44
I0
tp2021
a(F1491659871.26
I2
tp2022
a(F1491659871.27
I2
tp2023
a(F1491659871.27
I2
tp2024
a(F1491659871.29
I2
tp2025
a(F1491659871.29
I2
tp2026
a(F1491659871.3
I2
tp2027
a(F1491659871.3
I2
tp2028
a(F1491659871.3
I2
tp2029
a(F1491659872.27
I0
tp2030
a(F1491659872.27
I2
tp2031
a(F1491659874.29
I2
tp2032
a(F1491659875.05
I0
tp2033
a(F1491659877.58
I0
tp2034
a(F1491659879.36
I0
tp2035
a(F1491659879.37
I2
tp2036
a(F1491659883.43
I0
tp2037
a(F1491659890.41
I0
tp2038
a(F1491659893.26
I0
tp2039
a(F1491659894.71
I0
tp2040
a(F1491659898.24
I0
tp2041
a(F1491659906.4
I2
tp2042
a(F1491659917.61
I2
tp2043
a(F1491659918.85
I2
tp2044
a(F1491659919.31
I0
tp2045
a(F1491659920.08
I0
tp2046
a(F1491659920.08
I0
tp2047
a(F1491659923.34
I0
tp2048
a(F1491659927.21
I0
tp2049
a(F1491659928.62
I0
tp2050
a(F1491659928.62
I0
tp2051
a(F1491659931.41
I0
tp2052
a(F1491659935.69
I0
tp2053
a(F1491659937.8
I2
tp2054
a(F1491659938.67
I2
tp2055
a(F1491659938.79
I0
tp2056
a(F1491659939.19
I0
tp2057
a(F1491659939.19
I0
tp2058
a(F1491659939.23
I0
tp2059
a(F1491659939.28
I0
tp2060
a(F1491659939.31
I0
tp2061
a(F1491659939.42
I0
tp2062
a(F1491659941.4
I0
tp2063
a(F1491659941.41
I0
tp2064
a(F1491659941.5
I0
tp2065
a(F1491659941.5
I0
tp2066
a(F1491659941.63
I0
tp2067
a(F1491659943.38
I0
tp2068
a(F1491659957.53
I2
tp2069
a(F1491659957.53
I0
tp2070
a(F1491659959.05
I0
tp2071
a(F1491659959.78
I0
tp2072
a(F1491659970.62
I0
tp2073
a(F1491659972.34
I0
tp2074
a(F1491659972.35
I2
tp2075
a(F1491659977.33
I0
tp2076
a(F1491659977.33
I0
tp2077
a(F1491659977.33
I0
tp2078
a(F1491659977.42
I0
tp2079
a(F1491659977.43
I0
tp2080
a(F1491659977.44
I0
tp2081
a(F1491659977.51
I0
tp2082
a(F1491659977.88
I0
tp2083
a(F1491659982.24
I0
tp2084
a(F1491659991.77
I2
tp2085
a(F1491660015.79
I0
tp2086
a(F1491660028.49
I0
tp2087
a(F1491660028.61
I0
tp2088
a(F1491660028.62
I0
tp2089
a(F1491660028.65
I0
tp2090
a(F1491660028.76
I0
tp2091
a(F1491660028.78
I2
tp2092
a(F1491660028.78
I0
tp2093
a(F1491660028.8
I0
tp2094
a(F1491660028.91
I0
tp2095
a(F1491660031.05
I0
tp2096
a(F1491660032.79
I0
tp2097
a(F1491660044.38
I0
tp2098
a(F1491660044.49
I0
tp2099
a(F1491660045.61
I0
tp2100
a(F1491660046.45
I2
tp2101
a(F1491660046.88
I0
tp2102
a(F1491660049.71
I0
tp2103
a(F1491660049.71
I0
tp2104
a(F1491660049.74
I0
tp2105
a(F1491660049.78
I0
tp2106
a(F1491660050.14
I0
tp2107
a(F1491660050.15
I0
tp2108
a(F1491660050.2
I0
tp2109
a(F1491660050.48
I0
tp2110
a(F1491660050.49
I0
tp2111
a(F1491660050.62
I0
tp2112
a(F1491660050.64
I0
tp2113
a(F1491660050.66
I0
tp2114
a(F1491660050.67
I0
tp2115
a(F1491660050.67
I0
tp2116
a(F1491660050.73
I0
tp2117
a(F1491660050.73
I0
tp2118
a(F1491660050.74
I0
tp2119
a(F1491660050.74
I0
tp2120
a(F1491660050.74
I0
tp2121
a(F1491660050.81
I0
tp2122
a(F1491660050.85
I0
tp2123
a(F1491660051.15
I0
tp2124
a(F1491660054.5
I2
tp2125
a(F1491660055.72
I0
tp2126
a(F1491660055.72
I0
tp2127
a(F1491660056.88
I0
tp2128
a(F1491660060.54
I0
tp2129
a(F1491660075.59
I2
tp2130
a(F1491660084.31
I2
tp2131
a(F1491660119.06
I2
tp2132
a(F1491660120.45
I0
tp2133
a(F1491660121.61
I0
tp2134
a(F1491660123.37
I0
tp2135
a(F1491660123.7
I0
tp2136
a(F1491660123.7
I0
tp2137
a(F1491660123.7
I2
tp2138
a(F1491660123.72
I0
tp2139
a(F1491660125.23
I0
tp2140
a(F1491660125.87
I0
tp2141
a(F1491660126.06
I0
tp2142
a(F1491660126.06
I0
tp2143
a(F1491660126.56
I0
tp2144
a(F1491660126.56
I0
tp2145
a(F1491660126.56
I2
tp2146
a(F1491660127.56
I0
tp2147
a(F1491660150.92
I2
tp2148
a(F1491660178.03
I0
tp2149
a(F1491660178.33
I0
tp2150
a(F1491660181.29
I2
tp2151
a(F1491660181.77
I0
tp2152
a(F1491660181.78
I0
tp2153
a(F1491660189.02
I2
tp2154
a(F1491660189.02
I0
tp2155
a(F1491660189.02
I0
tp2156
a(F1491660191.46
I2
tp2157
a(F1491660211.64
I2
tp2158
a(F1491660213.08
I0
tp2159
a(F1491660213.19
I0
tp2160
a(F1491660222.34
I0
tp2161
a(F1491660231.29
I0
tp2162
a(F1491660231.89
I2
tp2163
a(F1491660236.03
I0
tp2164
a(F1491660236.05
I0
tp2165
a(F1491660236.11
I0
tp2166
a(F1491660236.47
I0
tp2167
a(F1491660236.75
I0
tp2168
a(F1491660246.61
I2
tp2169
a(F1491660287.75
I0
tp2170
a(F1491660359.26
I2
tp2171
a(F1491660385.3
I0
tp2172
a(F1491660387.23
I0
tp2173
a(F1491660387.24
I0
tp2174
a(F1491660387.32
I0
tp2175
a(F1491660387.37
I0
tp2176
a(F1491660388.17
I0
tp2177
a(F1491660388.23
I0
tp2178
a(F1491660389.99
I0
tp2179
a(F1491660389.99
I0
tp2180
a(F1491660391.23
I2
tp2181
a(F1491660391.99
I0
tp2182
a(F1491660393.89
I0
tp2183
a(F1491660394.67
I0
tp2184
a(F1491660394.98
I0
tp2185
a(F1491660394.99
I0
tp2186
a(F1491660395.04
I0
tp2187
a(F1491660395.05
I0
tp2188
a(F1491660395.19
I0
tp2189
a(F1491660395.19
I0
tp2190
a(F1491660395.19
I0
tp2191
a(F1491660395.19
I0
tp2192
a(F1491660395.19
I0
tp2193
a(F1491660395.2
I0
tp2194
a(F1491660395.2
I0
tp2195
a(F1491660395.29
I0
tp2196
a(F1491660396.79
I0
tp2197
a(F1491660397.14
I0
tp2198
a(F1491660397.78
I0
tp2199
a(F1491660398.65
I2
tp2200
a(F1491660398.65
I0
tp2201
a(F1491660402.11
I0
tp2202
a(F1491660402.67
I0
tp2203
a(F1491660406.43
I0
tp2204
a(F1491660406.7
I2
tp2205
a(F1491660406.7
I2
tp2206
a(F1491660407.7
I0
tp2207
a(F1491660408.63
I0
tp2208
a(F1491660410.71
I0
tp2209
a(F1491660415.05
I0
tp2210
a(F1491660415.07
I0
tp2211
a(F1491660417.08
I0
tp2212
a(F1491660417.17
I2
tp2213
a(F1491660418.78
I2
tp2214
a(F1491660418.86
I2
tp2215
a(F1491660428.57
I2
tp2216
a(F1491660453.27
I0
tp2217
a(F1491660453.34
I0
tp2218
a(F1491660453.44
I0
tp2219
a(F1491660454.97
I2
tp2220
a(F1491660455.37
I0
tp2221
a(F1491660455.37
I0
tp2222
a(F1491660455.42
I0
tp2223
a(F1491660456.0
I0
tp2224
a(F1491660456.0
I0
tp2225
a(F1491660456.0
I0
tp2226
a(F1491660456.11
I0
tp2227
a(F1491660456.11
I0
tp2228
a(F1491660456.16
I0
tp2229
a(F1491660456.2
I0
tp2230
a(F1491660456.24
I0
tp2231
a(F1491660459.74
I0
tp2232
a(F1491660461.32
I0
tp2233
a(F1491660462.71
I2
tp2234
a(F1491660462.8
I0
tp2235
a(F1491660463.08
I0
tp2236
a(F1491660463.5
I0
tp2237
a(F1491660463.57
I0
tp2238
a(F1491660468.2
I0
tp2239
a(F1491660469.93
I2
tp2240
a(F1491660470.34
I0
tp2241
a(F1491660473.87
I0
tp2242
a(F1491660473.97
I2
tp2243
a(F1491660477.09
I0
tp2244
a(F1491660479.18
I2
tp2245
a(F1491660482.31
I2
tp2246
a(F1491660508.49
I2
tp2247
a(F1491660513.99
I0
tp2248
a(F1491660531.39
I0
tp2249
a(F1491660545.04
I0
tp2250
a(F1491660550.03
I0
tp2251
a(F1491660553.31
I2
tp2252
a(F1491660568.71
I0
tp2253
a(F1491660570.06
I0
tp2254
a(F1491660570.14
I0
tp2255
a(F1491660579.41
I0
tp2256
a(F1491660609.24
I0
tp2257
a(F1491660613.72
I0
tp2258
a(F1491660628.83
I0
tp2259
a(F1491660632.01
I0
tp2260
a(F1491660639.03
I0
tp2261
a(F1491660639.03
I0
tp2262
a(F1491660639.03
I0
tp2263
a(F1491660639.03
I0
tp2264
a(F1491660639.03
I0
tp2265
a(F1491660639.03
I0
tp2266
a(F1491660639.1
I0
tp2267
a(F1491660639.1
I0
tp2268
a(F1491660639.12
I0
tp2269
a(F1491660650.96
I0
tp2270
a(F1491660651.62
I2
tp2271
a(F1491660659.43
I0
tp2272
a(F1491660660.58
I2
tp2273
a(F1491660661.17
I2
tp2274
a(F1491660662.86
I0
tp2275
a(F1491660662.97
I0
tp2276
a(F1491660689.83
I0
tp2277
a(F1491660693.17
I2
tp2278
a(F1491660696.16
I0
tp2279
a(F1491660697.98
I2
tp2280
a(F1491660698.53
I0
tp2281
a(F1491660700.37
I2
tp2282
a(F1491660702.76
I2
tp2283
a(F1491660703.36
I2
tp2284
a(F1491660705.18
I2
tp2285
a(F1491660705.76
I2
tp2286
a(F1491660706.79
I2
tp2287
a(F1491660707.55
I2
tp2288
a(F1491660709.93
I2
tp2289
a(F1491660710.53
I0
tp2290
a(F1491660712.36
I2
tp2291
a(F1491660715.39
I2
tp2292
a(F1491660717.14
I0
tp2293
a(F1491660717.73
I2
tp2294
a(F1491660719.54
I2
tp2295
a(F1491660720.14
I0
tp2296
a(F1491660721.93
I0
tp2297
a(F1491660724.32
I2
tp2298
a(F1491660724.38
I0
tp2299
a(F1491660727.34
I2
tp2300
a(F1491660729.14
I2
tp2301
a(F1491660729.72
I0
tp2302
a(F1491660731.55
I2
tp2303
a(F1491660732.14
I2
tp2304
a(F1491660733.94
I2
tp2305
a(F1491660734.55
I2
tp2306
a(F1491660738.75
I2
tp2307
a(F1491660740.95
I2
tp2308
a(F1491660779.31
I0
tp2309
a(F1491660779.31
I0
tp2310
a(F1491660779.35
I0
tp2311
a(F1491660779.35
I0
tp2312
a(F1491660779.69
I0
tp2313
a(F1491660782.79
I0
tp2314
a(F1491660783.26
I2
tp2315
a(F1491660796.78
I2
tp2316
a(F1491660796.83
I0
tp2317
a(F1491660807.48
I2
tp2318
a(F1491660833.1
I2
tp2319
a(F1491660834.89
I2
tp2320
a(F1491660837.88
I2
tp2321
a(F1491660859.19
I0
tp2322
a(F1491660859.21
I0
tp2323
a(F1491660859.21
I0
tp2324
a(F1491660859.21
I0
tp2325
a(F1491660868.19
I2
tp2326
a(F1491660869.26
I2
tp2327
a(F1491660869.26
I2
tp2328
a(F1491660869.26
I2
tp2329
a(F1491660869.26
I2
tp2330
a(F1491660869.27
I2
tp2331
a(F1491660869.27
I2
tp2332
a(F1491660869.27
I2
tp2333
a(F1491660881.91
I2
tp2334
a(F1491660881.91
I2
tp2335
a(F1491660882.08
I0
tp2336
a(F1491660882.11
I0
tp2337
a(F1491660885.14
I2
tp2338
a(F1491660885.14
I0
tp2339
a(F1491660885.14
I0
tp2340
a(F1491660885.14
I0
tp2341
a(F1491660889.03
I0
tp2342
a(F1491660890.6
I0
tp2343
a(F1491660891.19
I2
tp2344
a(F1491660891.19
I0
tp2345
a(F1491660891.19
I0
tp2346
a(F1491660891.23
I0
tp2347
a(F1491660902.54
I2
tp2348
a(F1491660903.56
I0
tp2349
a(F1491660934.74
I2
tp2350
a(F1491660948.65
I2
tp2351
a(F1491660949.83
I0
tp2352
a(F1491660950.67
I0
tp2353
a(F1491660951.17
I2
tp2354
a(F1491660951.88
I0
tp2355
a(F1491661039.03
I0
tp2356
a(F1491661039.06
I0
tp2357
a(F1491661039.06
I0
tp2358
a(F1491661051.31
I2
tp2359
a(F1491661074.01
I2
tp2360
a(F1491661098.93
I0
tp2361
a(F1491661113.16
I0
tp2362
a(F1491661114.8
I2
tp2363
a(F1491661114.8
I2
tp2364
a(F1491661114.8
I2
tp2365
a(F1491661114.8
I2
tp2366
a(F1491661114.8
I0
tp2367
a(F1491661114.81
I0
tp2368
a(F1491661114.83
I2
tp2369
a(F1491661114.88
I0
tp2370
a(F1491661122.85
I0
tp2371
a(F1491661128.29
I0
tp2372
a(F1491661131.89
I0
tp2373
a(F1491661132.07
I0
tp2374
a(F1491661132.09
I0
tp2375
a(F1491661132.21
I0
tp2376
a(F1491661132.28
I2
tp2377
a(F1491661132.5
I0
tp2378
a(F1491661134.53
I0
tp2379
a(F1491661134.78
I0
tp2380
a(F1491661140.03
I0
tp2381
a(F1491661141.14
I0
tp2382
a(F1491661141.36
I0
tp2383
a(F1491661145.29
I0
tp2384
a(F1491661147.34
I0
tp2385
a(F1491661152.83
I2
tp2386
a(F1491661201.32
I2
tp2387
a(F1491661206.09
I0
tp2388
a(F1491661218.6
I0
tp2389
a(F1491661219.64
I0
tp2390
a(F1491661242.67
I0
tp2391
a(F1491661243.92
I2
tp2392
a(F1491661243.95
I0
tp2393
a(F1491661243.99
I0
tp2394
a(F1491661244.05
I0
tp2395
a(F1491661244.05
I0
tp2396
a(F1491661244.08
I0
tp2397
a(F1491661244.42
I0
tp2398
a(F1491661244.45
I0
tp2399
a(F1491661244.47
I0
tp2400
a(F1491661244.59
I2
tp2401
a(F1491661244.73
I0
tp2402
a(F1491661244.73
I0
tp2403
a(F1491661244.73
I0
tp2404
a(F1491661244.73
I0
tp2405
a(F1491661244.73
I0
tp2406
a(F1491661245.33
I0
tp2407
a(F1491661245.33
I0
tp2408
a(F1491661245.48
I0
tp2409
a(F1491661245.8
I0
tp2410
a(F1491661246.25
I0
tp2411
a(F1491661246.35
I0
tp2412
a(F1491661246.39
I0
tp2413
a(F1491661247.04
I0
tp2414
a(F1491661247.82
I0
tp2415
a(F1491661248.7
I2
tp2416
a(F1491661249.2
I0
tp2417
a(F1491661253.49
I0
tp2418
a(F1491661257.99
I2
tp2419
a(F1491661258.02
I0
tp2420
a(F1491661259.32
I0
tp2421
a(F1491661264.6
I0
tp2422
a(F1491661286.3
I0
tp2423
a(F1491661297.23
I0
tp2424
a(F1491661299.49
I0
tp2425
a(F1491661299.5
I0
tp2426
a(F1491661299.52
I0
tp2427
a(F1491661300.12
I0
tp2428
a(F1491661300.12
I0
tp2429
a(F1491661300.22
I2
tp2430
a(F1491661302.02
I2
tp2431
a(F1491661349.17
I0
tp2432
a(F1491661352.4
I0
tp2433
a(F1491661352.44
I0
tp2434
a(F1491661352.45
I0
tp2435
a(F1491661352.47
I0
tp2436
a(F1491661352.48
I0
tp2437
a(F1491661352.48
I0
tp2438
a(F1491661352.48
I0
tp2439
a(F1491661352.51
I0
tp2440
a(F1491661352.54
I0
tp2441
a(F1491661353.58
I2
tp2442
a(F1491661353.67
I2
tp2443
a(F1491661353.7
I0
tp2444
a(F1491661353.79
I0
tp2445
a(F1491661353.79
I0
tp2446
a(F1491661354.78
I0
tp2447
a(F1491661356.12
I0
tp2448
a(F1491661356.32
I2
tp2449
a(F1491661356.91
I0
tp2450
a(F1491661378.09
I0
tp2451
a(F1491661455.72
I2
tp2452
a(F1491661490.61
I0
tp2453
a(F1491661519.06
I0
tp2454
a(F1491661564.99
I2
tp2455
a(F1491661597.72
I2
tp2456
a(F1491661632.09
I2
tp2457
a(F1491661671.21
I2
tp2458
a(F1491661686.34
I2
tp2459
a(F1491661701.63
I0
tp2460
a(F1491661711.34
I0
tp2461
a(F1491661711.34
I0
tp2462
a(F1491661711.34
I2
tp2463
a(F1491661711.35
I0
tp2464
a(F1491661711.35
I0
tp2465
a(F1491661711.37
I0
tp2466
a(F1491661713.78
I0
tp2467
a(F1491661713.79
I0
tp2468
a(F1491661714.28
I0
tp2469
a(F1491661714.36
I0
tp2470
a(F1491661714.39
I0
tp2471
a(F1491661714.43
I2
tp2472
a(F1491661714.45
I0
tp2473
a(F1491661741.43
I0
tp2474
a(F1491661742.87
I0
tp2475
a(F1491661746.09
I0
tp2476
a(F1491661749.15
I0
tp2477
a(F1491661771.27
I2
tp2478
a(F1491661777.0
I2
tp2479
a(F1491661811.94
I0
tp2480
a(F1491661812.71
I0
tp2481
a(F1491661826.44
I0
tp2482
a(F1491661839.61
I0
tp2483
a(F1491661839.63
I0
tp2484
a(F1491661839.93
I2
tp2485
a(F1491661841.66
I0
tp2486
a(F1491661841.69
I0
tp2487
a(F1491661841.7
I0
tp2488
a(F1491661850.55
I0
tp2489
a(F1491661852.82
I0
tp2490
a(F1491661853.12
I0
tp2491
a(F1491661854.75
I0
tp2492
a(F1491661885.44
I2
tp2493
a(F1491661954.61
I0
tp2494
a(F1491661956.4
I0
tp2495
a(F1491661987.3
I2
tp2496
a(F1491661993.92
I0
tp2497
a(F1491661993.92
I0
tp2498
a(F1491661993.92
I0
tp2499
a(F1491661993.95
I0
tp2500
a(F1491661993.96
I0
tp2501
a(F1491661993.97
I0
tp2502
a(F1491661993.98
I0
tp2503
a(F1491661994.05
I0
tp2504
a(F1491661996.69
I0
tp2505
a(F1491661997.0
I0
tp2506
a(F1491661997.08
I0
tp2507
a(F1491661997.08
I0
tp2508
a(F1491661997.09
I0
tp2509
a(F1491661997.25
I0
tp2510
a(F1491661997.37
I0
tp2511
a(F1491661997.37
I0
tp2512
a(F1491661997.42
I0
tp2513
a(F1491661997.46
I0
tp2514
a(F1491661997.47
I0
tp2515
a(F1491661997.5
I0
tp2516
a(F1491661997.52
I0
tp2517
a(F1491661997.59
I0
tp2518
a(F1491661997.6
I0
tp2519
a(F1491661997.6
I0
tp2520
a(F1491661997.62
I0
tp2521
a(F1491661997.65
I0
tp2522
a(F1491661997.69
I0
tp2523
a(F1491661997.71
I0
tp2524
a(F1491661997.73
I0
tp2525
a(F1491661997.78
I0
tp2526
a(F1491661997.85
I0
tp2527
a(F1491661997.86
I0
tp2528
a(F1491661997.87
I0
tp2529
a(F1491661998.03
I0
tp2530
a(F1491661998.03
I0
tp2531
a(F1491661998.34
I0
tp2532
a(F1491661998.62
I2
tp2533
a(F1491661999.06
I0
tp2534
a(F1491661999.06
I0
tp2535
a(F1491661999.07
I0
tp2536
a(F1491661999.07
I0
tp2537
a(F1491661999.1
I0
tp2538
a(F1491661999.2
I0
tp2539
a(F1491661999.2
I0
tp2540
a(F1491662000.61
I0
tp2541
a(F1491662000.98
I0
tp2542
a(F1491662001.01
I0
tp2543
a(F1491662001.01
I0
tp2544
a(F1491662001.09
I0
tp2545
a(F1491662001.22
I0
tp2546
a(F1491662003.72
I0
tp2547
a(F1491662006.62
I0
tp2548
a(F1491662007.15
I0
tp2549
a(F1491662007.37
I0
tp2550
a(F1491662012.68
I2
tp2551
a(F1491662013.01
I0
tp2552
a(F1491662013.23
I0
tp2553
a(F1491662014.65
I0
tp2554
a(F1491662014.7
I0
tp2555
a(F1491662015.13
I0
tp2556
a(F1491662015.13
I0
tp2557
a(F1491662015.13
I0
tp2558
a(F1491662015.22
I0
tp2559
a(F1491662015.22
I0
tp2560
a(F1491662015.22
I2
tp2561
a(F1491662016.65
I0
tp2562
a(F1491662018.19
I0
tp2563
a(F1491662019.48
I0
tp2564
a(F1491662029.92
I0
tp2565
a(F1491662029.96
I0
tp2566
a(F1491662073.54
I0
tp2567
a(F1491662073.54
I0
tp2568
a(F1491662073.58
I0
tp2569
a(F1491662084.8
I2
tp2570
a(F1491662087.13
I0
tp2571
a(F1491662100.08
I0
tp2572
a(F1491662101.64
I0
tp2573
a(F1491662101.68
I0
tp2574
a(F1491662103.09
I0
tp2575
a(F1491662112.67
I0
tp2576
a(F1491662127.53
I2
tp2577
a(F1491662136.45
I0
tp2578
a(F1491662137.97
I0
tp2579
a(F1491662137.97
I0
tp2580
a(F1491662138.97
I0
tp2581
a(F1491662141.86
I0
tp2582
a(F1491662142.4
I0
tp2583
a(F1491662158.81
I2
tp2584
a(F1491662162.81
I0
tp2585
a(F1491662254.97
I0
tp2586
a(F1491662288.27
I2
tp2587
a(F1491662332.83
I2
tp2588
a(F1491662342.93
I0
tp2589
a(F1491662345.63
I0
tp2590
a(F1491662373.52
I2
tp2591
a(F1491662373.52
I2
tp2592
a(F1491662373.52
I2
tp2593
a(F1491662373.52
I2
tp2594
a(F1491662373.52
I2
tp2595
a(F1491662373.53
I2
tp2596
a(F1491662373.53
I2
tp2597
a(F1491662373.56
I2
tp2598
a(F1491662373.56
I2
tp2599
a(F1491662373.59
I2
tp2600
a(F1491662376.25
I0
tp2601
a(F1491662376.25
I0
tp2602
a(F1491662376.25
I0
tp2603
a(F1491662376.25
I0
tp2604
a(F1491662376.25
I0
tp2605
a(F1491662376.25
I0
tp2606
a(F1491662376.25
I0
tp2607
a(F1491662376.26
I0
tp2608
a(F1491662376.29
I0
tp2609
a(F1491662376.3
I0
tp2610
a(F1491662378.64
I0
tp2611
a(F1491662381.22
I0
tp2612
a(F1491662381.7
I0
tp2613
a(F1491662382.1
I0
tp2614
a(F1491662382.17
I2
tp2615
a(F1491662396.59
I0
tp2616
a(F1491662403.09
I0
tp2617
a(F1491662410.94
I0
tp2618
a(F1491662426.82
I0
tp2619
a(F1491662457.45
I0
tp2620
a(F1491662460.97
I0
tp2621
a(F1491662479.56
I0
tp2622
a(F1491662487.17
I0
tp2623
a(F1491662516.46
I0
tp2624
a(F1491662529.66
I2
tp2625
a(F1491662529.66
I2
tp2626
a(F1491662529.66
I2
tp2627
a(F1491662529.66
I2
tp2628
a(F1491662529.66
I2
tp2629
a(F1491662529.66
I2
tp2630
a(F1491662529.66
I2
tp2631
a(F1491662529.66
I2
tp2632
a(F1491662530.44
I0
tp2633
a(F1491662534.61
I0
tp2634
a(F1491662536.31
I0
tp2635
a(F1491662536.37
I0
tp2636
a(F1491662536.49
I0
tp2637
a(F1491662536.49
I0
tp2638
a(F1491662536.49
I0
tp2639
a(F1491662536.5
I0
tp2640
a(F1491662536.51
I0
tp2641
a(F1491662536.54
I0
tp2642
a(F1491662536.55
I2
tp2643
a(F1491662536.59
I0
tp2644
a(F1491662536.59
I0
tp2645
a(F1491662536.68
I0
tp2646
a(F1491662536.69
I0
tp2647
a(F1491662536.73
I0
tp2648
a(F1491662536.76
I0
tp2649
a(F1491662537.86
I0
tp2650
a(F1491662537.89
I0
tp2651
a(F1491662537.95
I0
tp2652
a(F1491662538.62
I0
tp2653
a(F1491662539.63
I0
tp2654
a(F1491662540.0
I0
tp2655
a(F1491662540.52
I0
tp2656
a(F1491662540.75
I0
tp2657
a(F1491662542.98
I0
tp2658
a(F1491662543.33
I0
tp2659
a(F1491662543.36
I0
tp2660
a(F1491662543.37
I0
tp2661
a(F1491662543.44
I0
tp2662
a(F1491662543.55
I0
tp2663
a(F1491662545.1
I0
tp2664
a(F1491662546.55
I0
tp2665
a(F1491662547.09
I0
tp2666
a(F1491662547.09
I0
tp2667
a(F1491662547.13
I0
tp2668
a(F1491662547.18
I0
tp2669
a(F1491662547.23
I0
tp2670
a(F1491662547.39
I0
tp2671
a(F1491662547.49
I0
tp2672
a(F1491662548.54
I0
tp2673
a(F1491662548.69
I0
tp2674
a(F1491662548.93
I0
tp2675
a(F1491662549.07
I0
tp2676
a(F1491662549.07
I0
tp2677
a(F1491662549.07
I0
tp2678
a(F1491662549.12
I0
tp2679
a(F1491662550.88
I0
tp2680
a(F1491662551.36
I0
tp2681
a(F1491662552.57
I0
tp2682
a(F1491662552.7
I0
tp2683
a(F1491662552.73
I0
tp2684
a(F1491662552.78
I2
tp2685
a(F1491662552.79
I2
tp2686
a(F1491662552.9
I0
tp2687
a(F1491662552.9
I2
tp2688
a(F1491662552.94
I0
tp2689
a(F1491662553.98
I0
tp2690
a(F1491662554.25
I2
tp2691
a(F1491662554.44
I0
tp2692
a(F1491662554.62
I2
tp2693
a(F1491662554.65
I0
tp2694
a(F1491662555.29
I0
tp2695
a(F1491662555.62
I0
tp2696
a(F1491662555.62
I0
tp2697
a(F1491662555.77
I0
tp2698
a(F1491662557.51
I2
tp2699
a(F1491662557.77
I0
tp2700
a(F1491662558.01
I0
tp2701
a(F1491662558.01
I0
tp2702
a(F1491662558.01
I2
tp2703
a(F1491662558.26
I0
tp2704
a(F1491662559.3
I2
tp2705
a(F1491662561.38
I2
tp2706
a(F1491662561.39
I0
tp2707
a(F1491662561.42
I0
tp2708
a(F1491662561.48
I0
tp2709
a(F1491662561.56
I2
tp2710
a(F1491662561.6
I0
tp2711
a(F1491662561.7
I0
tp2712
a(F1491662563.03
I2
tp2713
a(F1491662563.04
I0
tp2714
a(F1491662563.12
I0
tp2715
a(F1491662564.3
I0
tp2716
a(F1491662564.77
I0
tp2717
a(F1491662564.94
I0
tp2718
a(F1491662564.95
I0
tp2719
a(F1491662564.96
I0
tp2720
a(F1491662564.99
I0
tp2721
a(F1491662565.37
I0
tp2722
a(F1491662565.41
I0
tp2723
a(F1491662565.5
I0
tp2724
a(F1491662565.53
I0
tp2725
a(F1491662565.58
I0
tp2726
a(F1491662565.6
I0
tp2727
a(F1491662566.2
I0
tp2728
a(F1491662566.42
I0
tp2729
a(F1491662566.49
I2
tp2730
a(F1491662566.8
I0
tp2731
a(F1491662567.02
I0
tp2732
a(F1491662567.48
I0
tp2733
a(F1491662568.09
I0
tp2734
a(F1491662568.11
I0
tp2735
a(F1491662568.46
I0
tp2736
a(F1491662568.66
I0
tp2737
a(F1491662568.72
I2
tp2738
a(F1491662568.86
I0
tp2739
a(F1491662569.2
I2
tp2740
a(F1491662569.23
I2
tp2741
a(F1491662569.51
I2
tp2742
a(F1491662569.57
I0
tp2743
a(F1491662570.5
I0
tp2744
a(F1491662570.58
I0
tp2745
a(F1491662570.58
I0
tp2746
a(F1491662570.73
I0
tp2747
a(F1491662570.77
I0
tp2748
a(F1491662572.69
I0
tp2749
a(F1491662573.35
I0
tp2750
a(F1491662574.35
I0
tp2751
a(F1491662574.92
I0
tp2752
a(F1491662574.92
I0
tp2753
a(F1491662574.97
I0
tp2754
a(F1491662575.65
I0
tp2755
a(F1491662575.89
I0
tp2756
a(F1491662576.68
I0
tp2757
a(F1491662578.39
I0
tp2758
a(F1491662578.73
I2
tp2759
a(F1491662580.34
I0
tp2760
a(F1491662580.41
I0
tp2761
a(F1491662580.53
I0
tp2762
a(F1491662583.14
I0
tp2763
a(F1491662583.14
I0
tp2764
a(F1491662583.16
I0
tp2765
a(F1491662583.21
I0
tp2766
a(F1491662589.26
I2
tp2767
a(F1491662592.56
I0
tp2768
a(F1491662622.93
I0
tp2769
a(F1491662624.32
I2
tp2770
a(F1491662635.99
I0
tp2771
a(F1491662643.73
I0
tp2772
a(F1491662661.55
I0
tp2773
a(F1491662667.76
I0
tp2774
a(F1491662703.23
I0
tp2775
a(F1491662708.94
I0
tp2776
a(F1491662726.15
I0
tp2777
a(F1491662759.14
I2
tp2778
a(F1491662767.81
I2
tp2779
a(F1491662781.75
I0
tp2780
a(F1491662787.1
I0
tp2781
a(F1491662794.97
I2
tp2782
a(F1491662799.38
I2
tp2783
a(F1491662805.39
I0
tp2784
a(F1491662835.82
I0
tp2785
a(F1491662835.9
I2
tp2786
a(F1491662837.78
I0
tp2787
a(F1491662848.53
I0
tp2788
a(F1491662849.25
I0
tp2789
a(F1491662860.33
I2
tp2790
a(F1491662867.79
I0
tp2791
a(F1491662890.27
I2
tp2792
a(F1491662913.06
I0
tp2793
a(F1491662913.09
I0
tp2794
a(F1491662919.38
I2
tp2795
a(F1491662920.67
I0
tp2796
a(F1491662929.58
I0
tp2797
a(F1491662944.91
I0
tp2798
a(F1491662967.38
I0
tp2799
a(F1491662994.15
I0
tp2800
a(F1491663004.22
I0
tp2801
a(F1491663030.42
I0
tp2802
a(F1491663038.15
I0
tp2803
a(F1491663039.38
I2
tp2804
a(F1491663089.38
I0
tp2805
a(F1491663105.03
I2
tp2806
a(F1491663109.42
I0
tp2807
a(F1491663109.91
I0
tp2808
a(F1491663110.66
I0
tp2809
a(F1491663112.46
I0
tp2810
a(F1491663115.38
I0
tp2811
a(F1491663125.66
I0
tp2812
a(F1491663125.7
I0
tp2813
a(F1491663130.57
I0
tp2814
a(F1491663131.55
I0
tp2815
a(F1491663133.45
I0
tp2816
a(F1491663134.08
I0
tp2817
a(F1491663134.65
I0
tp2818
a(F1491663137.23
I0
tp2819
a(F1491663137.5
I2
tp2820
a(F1491663139.68
I0
tp2821
a(F1491663142.62
I0
tp2822
a(F1491663144.44
I0
tp2823
a(F1491663150.37
I0
tp2824
a(F1491663160.13
I0
tp2825
a(F1491663176.69
I2
tp2826
a(F1491663191.32
I2
tp2827
a(F1491663211.37
I0
tp2828
a(F1491663216.0
I0
tp2829
a(F1491663263.92
I0
tp2830
a(F1491663271.38
I0
tp2831
a(F1491663303.03
I0
tp2832
a(F1491663303.16
I0
tp2833
a(F1491663307.04
I0
tp2834
a(F1491663316.61
I0
tp2835
a(F1491663320.49
I0
tp2836
a(F1491663332.4
I0
tp2837
a(F1491663360.83
I0
tp2838
a(F1491663402.71
I0
tp2839
a(F1491663417.71
I0
tp2840
a(F1491663423.23
I0
tp2841
a(F1491663453.36
I0
tp2842
a(F1491663460.96
I0
tp2843
a(F1491663471.17
I2
tp2844
a(F1491663472.76
I2
tp2845
a(F1491663513.37
I0
tp2846
a(F1491663543.39
I0
tp2847
a(F1491663545.52
I0
tp2848
a(F1491663545.53
I0
tp2849
a(F1491663545.57
I0
tp2850
a(F1491663545.58
I0
tp2851
a(F1491663545.58
I0
tp2852
a(F1491663545.6
I0
tp2853
a(F1491663545.61
I0
tp2854
a(F1491663545.61
I0
tp2855
a(F1491663545.62
I0
tp2856
a(F1491663545.63
I0
tp2857
a(F1491663545.63
I0
tp2858
a(F1491663545.64
I0
tp2859
a(F1491663545.91
I0
tp2860
a(F1491663545.95
I0
tp2861
a(F1491663546.85
I0
tp2862
a(F1491663546.85
I0
tp2863
a(F1491663546.97
I0
tp2864
a(F1491663547.03
I0
tp2865
a(F1491663547.05
I0
tp2866
a(F1491663547.1
I0
tp2867
a(F1491663547.1
I0
tp2868
a(F1491663548.01
I2
tp2869
a(F1491663549.71
I0
tp2870
a(F1491663564.81
I0
tp2871
a(F1491663569.66
I0
tp2872
a(F1491663574.45
I0
tp2873
a(F1491663577.65
I2
tp2874
a(F1491663586.17
I0
tp2875
a(F1491663611.17
I2
tp2876
a(F1491663616.15
I0
tp2877
a(F1491663616.41
I0
tp2878
a(F1491663626.55
I0
tp2879
a(F1491663627.88
I0
tp2880
a(F1491663637.81
I0
tp2881
a(F1491663637.87
I0
tp2882
a(F1491663639.37
I0
tp2883
a(F1491663639.4
I0
tp2884
a(F1491663641.42
I2
tp2885
a(F1491663644.94
I2
tp2886
a(F1491663645.82
I0
tp2887
a(F1491663647.72
I0
tp2888
a(F1491663647.78
I0
tp2889
a(F1491663647.79
I0
tp2890
a(F1491663648.79
I0
tp2891
a(F1491663648.83
I0
tp2892
a(F1491663667.52
I0
tp2893
a(F1491663668.48
I0
tp2894
a(F1491663686.25
I2
tp2895
a(F1491663686.81
I0
tp2896
a(F1491663696.37
I0
tp2897
a(F1491663717.42
I2
tp2898
a(F1491663717.44
I0
tp2899
a(F1491663722.78
I0
tp2900
a(F1491663741.34
I2
tp2901
a(F1491663742.68
I2
tp2902
a(F1491663748.39
I2
tp2903
a(F1491663755.59
I0
tp2904
a(F1491663757.36
I0
tp2905
a(F1491663757.73
I0
tp2906
a(F1491663758.15
I0
tp2907
a(F1491663758.31
I0
tp2908
a(F1491663759.48
I0
tp2909
a(F1491663789.09
I0
tp2910
a(F1491663792.25
I2
tp2911
a(F1491663813.03
I0
tp2912
a(F1491663813.1
I0
tp2913
a(F1491663813.51
I2
tp2914
a(F1491663843.47
I0
tp2915
a(F1491663850.25
I0
tp2916
a(F1491663859.09
I0
tp2917
a(F1491663864.69
I2
tp2918
a(F1491663874.04
I2
tp2919
a(F1491663878.34
I0
tp2920
a(F1491663908.34
I2
tp2921
a(F1491663908.92
I0
tp2922
a(F1491663909.53
I0
tp2923
a(F1491663912.21
I0
tp2924
a(F1491663913.67
I0
tp2925
a(F1491663917.75
I0
tp2926
a(F1491663917.75
I0
tp2927
a(F1491663927.83
I0
tp2928
a(F1491663939.42
I0
tp2929
a(F1491663941.86
I0
tp2930
a(F1491663942.81
I0
tp2931
a(F1491663942.81
I0
tp2932
a(F1491663944.59
I0
tp2933
a(F1491663949.58
I0
tp2934
a(F1491663953.42
I0
tp2935
a(F1491664000.52
I0
tp2936
a(F1491664011.52
I0
tp2937
a(F1491664037.25
I0
tp2938
a(F1491664066.41
I0
tp2939
a(F1491664066.41
I0
tp2940
a(F1491664067.38
I0
tp2941
a(F1491664068.8
I0
tp2942
a(F1491664069.75
I0
tp2943
a(F1491664070.01
I0
tp2944
a(F1491664070.01
I2
tp2945
a(F1491664070.04
I0
tp2946
a(F1491664070.13
I2
tp2947
a(F1491664070.15
I0
tp2948
a(F1491664070.19
I0
tp2949
a(F1491664070.29
I0
tp2950
a(F1491664070.3
I0
tp2951
a(F1491664070.32
I0
tp2952
a(F1491664070.41
I2
tp2953
a(F1491664070.41
I0
tp2954
a(F1491664070.65
I0
tp2955
a(F1491664070.65
I0
tp2956
a(F1491664070.69
I0
tp2957
a(F1491664070.69
I0
tp2958
a(F1491664070.71
I0
tp2959
a(F1491664071.89
I0
tp2960
a(F1491664071.89
I0
tp2961
a(F1491664071.94
I0
tp2962
a(F1491664072.1
I0
tp2963
a(F1491664072.12
I0
tp2964
a(F1491664072.18
I0
tp2965
a(F1491664073.27
I0
tp2966
a(F1491664073.31
I0
tp2967
a(F1491664073.32
I0
tp2968
a(F1491664073.68
I0
tp2969
a(F1491664073.93
I0
tp2970
a(F1491664074.37
I0
tp2971
a(F1491664074.64
I2
tp2972
a(F1491664074.68
I0
tp2973
a(F1491664074.76
I2
tp2974
a(F1491664074.84
I2
tp2975
a(F1491664074.85
I2
tp2976
a(F1491664074.88
I0
tp2977
a(F1491664074.89
I0
tp2978
a(F1491664074.93
I0
tp2979
a(F1491664074.94
I0
tp2980
a(F1491664074.98
I0
tp2981
a(F1491664074.98
I0
tp2982
a(F1491664074.99
I2
tp2983
a(F1491664075.03
I2
tp2984
a(F1491664075.05
I0
tp2985
a(F1491664075.13
I0
tp2986
a(F1491664075.13
I0
tp2987
a(F1491664075.2
I0
tp2988
a(F1491664075.56
I0
tp2989
a(F1491664075.91
I0
tp2990
a(F1491664077.19
I0
tp2991
a(F1491664077.4
I2
tp2992
a(F1491664077.47
I2
tp2993
a(F1491664077.71
I0
tp2994
a(F1491664077.72
I0
tp2995
a(F1491664077.81
I0
tp2996
a(F1491664077.81
I0
tp2997
a(F1491664079.2
I0
tp2998
a(F1491664079.79
I2
tp2999
a(F1491664079.81
I0
tp3000
a(F1491664080.11
I0
tp3001
a(F1491664080.35
I0
tp3002
a(F1491664080.42
I0
tp3003
a(F1491664080.94
I0
tp3004
a(F1491664081.95
I0
tp3005
a(F1491664082.14
I0
tp3006
a(F1491664082.14
I0
tp3007
a(F1491664082.36
I0
tp3008
a(F1491664083.8
I0
tp3009
a(F1491664083.93
I2
tp3010
a(F1491664084.2
I0
tp3011
a(F1491664084.36
I0
tp3012
a(F1491664084.54
I2
tp3013
a(F1491664085.85
I0
tp3014
a(F1491664086.8
I0
tp3015
a(F1491664086.8
I0
tp3016
a(F1491664089.56
I0
tp3017
a(F1491664090.91
I0
tp3018
a(F1491664091.33
I0
tp3019
a(F1491664091.56
I0
tp3020
a(F1491664093.25
I2
tp3021
a(F1491664094.94
I2
tp3022
a(F1491664110.01
I2
tp3023
a(F1491664131.74
I2
tp3024
a(F1491664136.36
I2
tp3025
a(F1491664147.83
I0
tp3026
a(F1491664152.33
I0
tp3027
a(F1491664176.49
I0
tp3028
a(F1491664183.39
I0
tp3029
a(F1491664183.4
I0
tp3030
a(F1491664187.69
I0
tp3031
a(F1491664187.7
I0
tp3032
a(F1491664198.63
I0
tp3033
a(F1491664200.02
I2
tp3034
a(F1491664223.99
I2
tp3035
a(F1491664244.52
I0
tp3036
a(F1491664280.48
I0
tp3037
a(F1491664288.84
I0
tp3038
a(F1491664305.4
I0
tp3039
a(F1491664319.06
I0
tp3040
a(F1491664320.66
I0
tp3041
a(F1491664323.57
I2
tp3042
a(F1491664323.57
I2
tp3043
a(F1491664359.37
I0
tp3044
a(F1491664359.37
I0
tp3045
a(F1491664363.95
I0
tp3046
a(F1491664364.16
I0
tp3047
a(F1491664364.42
I0
tp3048
a(F1491664364.46
I0
tp3049
a(F1491664364.46
I0
tp3050
a(F1491664364.46
I0
tp3051
a(F1491664364.47
I0
tp3052
a(F1491664364.48
I0
tp3053
a(F1491664364.5
I0
tp3054
a(F1491664364.54
I0
tp3055
a(F1491664364.54
I0
tp3056
a(F1491664366.15
I0
tp3057
a(F1491664366.16
I0
tp3058
a(F1491664366.46
I0
tp3059
a(F1491664366.95
I0
tp3060
a(F1491664367.05
I0
tp3061
a(F1491664367.05
I0
tp3062
a(F1491664368.22
I0
tp3063
a(F1491664368.22
I0
tp3064
a(F1491664368.22
I0
tp3065
a(F1491664368.22
I2
tp3066
a(F1491664368.24
I0
tp3067
a(F1491664368.27
I0
tp3068
a(F1491664368.27
I0
tp3069
a(F1491664368.47
I0
tp3070
a(F1491664368.47
I0
tp3071
a(F1491664368.52
I0
tp3072
a(F1491664368.56
I0
tp3073
a(F1491664368.56
I0
tp3074
a(F1491664368.6
I2
tp3075
a(F1491664369.61
I0
tp3076
a(F1491664369.69
I0
tp3077
a(F1491664370.07
I0
tp3078
a(F1491664370.43
I0
tp3079
a(F1491664370.47
I0
tp3080
a(F1491664371.14
I0
tp3081
a(F1491664371.85
I0
tp3082
a(F1491664372.19
I0
tp3083
a(F1491664372.3
I2
tp3084
a(F1491664372.38
I0
tp3085
a(F1491664373.13
I0
tp3086
a(F1491664373.34
I0
tp3087
a(F1491664373.43
I2
tp3088
a(F1491664373.84
I0
tp3089
a(F1491664374.03
I0
tp3090
a(F1491664375.24
I0
tp3091
a(F1491664376.4
I0
tp3092
a(F1491664379.66
I0
tp3093
a(F1491664385.22
I0
tp3094
a(F1491664389.53
I0
tp3095
a(F1491664394.33
I2
tp3096
a(F1491664437.03
I2
tp3097
a(F1491664448.42
I0
tp3098
a(F1491664460.63
I2
tp3099
a(F1491664463.83
I2
tp3100
a(F1491664485.05
I0
tp3101
a(F1491664487.33
I2
tp3102
a(F1491664488.33
I0
tp3103
a(F1491664507.34
I0
tp3104
a(F1491664530.33
I0
tp3105
a(F1491664549.33
I0
tp3106
a(F1491664560.55
I0
tp3107
a(F1491664560.69
I2
tp3108
a(F1491664560.7
I0
tp3109
a(F1491664567.33
I0
tp3110
a(F1491664581.23
I2
tp3111
a(F1491664607.37
I2
tp3112
a(F1491664610.33
I0
tp3113
a(F1491664610.46
I2
tp3114
a(F1491664671.33
I0
tp3115
a(F1491664676.64
I0
tp3116
a(F1491664695.27
I2
tp3117
a(F1491664712.95
I0
tp3118
a(F1491664713.11
I0
tp3119
a(F1491664725.48
I2
tp3120
a(F1491664728.63
I2
tp3121
a(F1491664732.37
I0
tp3122
a(F1491664736.53
I0
tp3123
a(F1491664755.5
I0
tp3124
a(F1491664767.93
I0
tp3125
a(F1491664776.97
I0
tp3126
a(F1491664792.03
I0
tp3127
a(F1491664796.58
I0
tp3128
a(F1491664798.32
I2
tp3129
a(F1491664811.17
I2
tp3130
a(F1491664815.59
I2
tp3131
a(F1491664815.72
I0
tp3132
a(F1491664815.78
I0
tp3133
a(F1491664826.53
I0
tp3134
a(F1491664837.64
I0
tp3135
a(F1491664838.96
I0
tp3136
a(F1491664847.33
I2
tp3137
a(F1491664855.97
I2
tp3138
a(F1491664860.07
I0
tp3139
a(F1491664865.51
I0
tp3140
a(F1491664867.29
I0
tp3141
a(F1491664891.01
I0
tp3142
a(F1491664902.52
I2
tp3143
a(F1491664918.93
I2
tp3144
a(F1491664919.65
I2
tp3145
a(F1491664921.88
I0
tp3146
a(F1491664932.33
I0
tp3147
a(F1491664936.25
I0
tp3148
a(F1491664967.47
I2
tp3149
a(F1491664996.28
I2
tp3150
a(F1491664996.36
I0
tp3151
a(F1491665005.32
I0
tp3152
a(F1491665031.9
I2
tp3153
a(F1491665034.0
I2
tp3154
a(F1491665037.47
I0
tp3155
a(F1491665046.49
I2
tp3156
a(F1491665055.02
I0
tp3157
a(F1491665055.71
I0
tp3158
a(F1491665082.53
I0
tp3159
a(F1491665083.4
I2
tp3160
a(F1491665116.85
I0
tp3161
a(F1491665117.6
I0
tp3162
a(F1491665117.97
I0
tp3163
a(F1491665123.24
I0
tp3164
a(F1491665126.57
I0
tp3165
a(F1491665140.3
I0
tp3166
a(F1491665140.3
I0
tp3167
a(F1491665140.3
I0
tp3168
a(F1491665140.31
I0
tp3169
a(F1491665140.31
I0
tp3170
a(F1491665140.33
I2
tp3171
a(F1491665140.39
I0
tp3172
a(F1491665140.39
I0
tp3173
a(F1491665140.39
I0
tp3174
a(F1491665140.42
I2
tp3175
a(F1491665140.42
I0
tp3176
a(F1491665140.42
I2
tp3177
a(F1491665140.42
I0
tp3178
a(F1491665140.43
I0
tp3179
a(F1491665140.43
I0
tp3180
a(F1491665140.43
I0
tp3181
a(F1491665140.43
I0
tp3182
a(F1491665140.44
I0
tp3183
a(F1491665140.44
I0
tp3184
a(F1491665140.44
I0
tp3185
a(F1491665140.45
I0
tp3186
a(F1491665140.46
I0
tp3187
a(F1491665140.6
I0
tp3188
a(F1491665142.46
I2
tp3189
a(F1491665142.46
I2
tp3190
a(F1491665149.06
I0
tp3191
a(F1491665149.06
I2
tp3192
a(F1491665160.07
I2
tp3193
a(F1491665163.56
I2
tp3194
a(F1491665165.61
I2
tp3195
a(F1491665165.61
I2
tp3196
a(F1491665165.62
I2
tp3197
a(F1491665165.62
I2
tp3198
a(F1491665165.62
I2
tp3199
a(F1491665165.62
I2
tp3200
a(F1491665165.62
I2
tp3201
a(F1491665165.62
I2
tp3202
a(F1491665165.63
I2
tp3203
a(F1491665171.57
I0
tp3204
a(F1491665172.74
I0
tp3205
a(F1491665175.11
I0
tp3206
a(F1491665176.9
I0
tp3207
a(F1491665184.57
I2
tp3208
a(F1491665201.1
I0
tp3209
a(F1491665201.95
I0
tp3210
a(F1491665207.41
I0
tp3211
a(F1491665207.41
I0
tp3212
a(F1491665207.45
I0
tp3213
a(F1491665207.46
I0
tp3214
a(F1491665207.46
I0
tp3215
a(F1491665207.5
I0
tp3216
a(F1491665207.54
I0
tp3217
a(F1491665207.55
I0
tp3218
a(F1491665207.87
I0
tp3219
a(F1491665208.76
I0
tp3220
a(F1491665209.89
I2
tp3221
a(F1491665210.3
I0
tp3222
a(F1491665212.32
I0
tp3223
a(F1491665213.92
I0
tp3224
a(F1491665213.92
I0
tp3225
a(F1491665213.92
I0
tp3226
a(F1491665213.92
I0
tp3227
a(F1491665213.92
I0
tp3228
a(F1491665213.93
I0
tp3229
a(F1491665213.93
I0
tp3230
a(F1491665213.93
I0
tp3231
a(F1491665213.93
I0
tp3232
a(F1491665213.94
I0
tp3233
a(F1491665213.94
I0
tp3234
a(F1491665213.94
I2
tp3235
a(F1491665213.94
I0
tp3236
a(F1491665213.94
I0
tp3237
a(F1491665213.95
I0
tp3238
a(F1491665213.95
I2
tp3239
a(F1491665213.95
I0
tp3240
a(F1491665213.95
I0
tp3241
a(F1491665213.95
I0
tp3242
a(F1491665213.96
I2
tp3243
a(F1491665213.97
I0
tp3244
a(F1491665213.97
I0
tp3245
a(F1491665214.01
I0
tp3246
a(F1491665214.01
I2
tp3247
a(F1491665214.02
I0
tp3248
a(F1491665214.05
I0
tp3249
a(F1491665214.06
I0
tp3250
a(F1491665214.06
I0
tp3251
a(F1491665214.07
I0
tp3252
a(F1491665214.07
I0
tp3253
a(F1491665214.11
I0
tp3254
a(F1491665214.11
I0
tp3255
a(F1491665214.12
I0
tp3256
a(F1491665214.12
I2
tp3257
a(F1491665214.12
I0
tp3258
a(F1491665214.13
I0
tp3259
a(F1491665214.18
I0
tp3260
a(F1491665214.2
I0
tp3261
a(F1491665214.2
I0
tp3262
a(F1491665214.26
I0
tp3263
a(F1491665214.26
I0
tp3264
a(F1491665214.27
I0
tp3265
a(F1491665214.28
I0
tp3266
a(F1491665228.34
I0
tp3267
a(F1491665231.42
I0
tp3268
a(F1491665231.75
I2
tp3269
a(F1491665232.14
I0
tp3270
a(F1491665232.21
I0
tp3271
a(F1491665237.59
I0
tp3272
a(F1491665244.62
I2
tp3273
a(F1491665259.79
I0
tp3274
a(F1491665261.46
I0
tp3275
a(F1491665261.56
I0
tp3276
a(F1491665261.61
I0
tp3277
a(F1491665261.75
I0
tp3278
a(F1491665263.31
I0
tp3279
a(F1491665274.62
I0
tp3280
a(F1491665276.53
I0
tp3281
a(F1491665277.62
I0
tp3282
a(F1491665284.24
I0
tp3283
a(F1491665284.25
I0
tp3284
a(F1491665284.25
I0
tp3285
a(F1491665289.44
I0
tp3286
a(F1491665297.32
I2
tp3287
a(F1491665297.56
I0
tp3288
a(F1491665304.61
I0
tp3289
a(F1491665307.36
I0
tp3290
a(F1491665316.66
I0
tp3291
a(F1491665337.76
I2
tp3292
a(F1491665337.94
I0
tp3293
a(F1491665357.71
I0
tp3294
a(F1491665362.81
I0
tp3295
a(F1491665362.84
I0
tp3296
a(F1491665383.65
I0
tp3297
a(F1491665413.6
I0
tp3298
a(F1491665453.88
I2
tp3299
a(F1491665474.83
I0
tp3300
a(F1491665481.74
I0
tp3301
a(F1491665487.3
I2
tp3302
a(F1491665524.57
I2
tp3303
a(F1491665598.27
I2
tp3304
a(F1491665643.32
I0
tp3305
a(F1491665645.64
I2
tp3306
a(F1491665645.65
I2
tp3307
a(F1491665645.8
I0
tp3308
a(F1491665648.67
I0
tp3309
a(F1491665668.54
I0
tp3310
a(F1491665674.78
I2
tp3311
a(F1491665680.42
I0
tp3312
a(F1491665695.31
I2
tp3313
a(F1491665706.63
I0
tp3314
a(F1491665729.57
I2
tp3315
a(F1491665740.79
I0
tp3316
a(F1491665751.36
I0
tp3317
a(F1491665767.81
I0
tp3318
a(F1491665786.91
I0
tp3319
a(F1491665827.6
I0
tp3320
a(F1491665860.86
I2
tp3321
a(F1491665861.55
I0
tp3322
a(F1491665899.41
I2
tp3323
a(F1491665931.43
I2
tp3324
a(F1491665933.6
I0
tp3325
a(F1491665933.71
I0
tp3326
a(F1491665936.27
I0
tp3327
a(F1491665939.69
I0
tp3328
a(F1491665943.8
I0
tp3329
a(F1491665951.25
I0
tp3330
a(F1491665951.53
I0
tp3331
a(F1491665951.6
I0
tp3332
a(F1491665951.65
I0
tp3333
a(F1491665951.66
I0
tp3334
a(F1491665951.71
I0
tp3335
a(F1491665952.05
I0
tp3336
a(F1491665952.18
I0
tp3337
a(F1491665952.32
I0
tp3338
a(F1491665952.75
I0
tp3339
a(F1491665952.87
I0
tp3340
a(F1491665952.96
I0
tp3341
a(F1491665953.69
I0
tp3342
a(F1491665954.32
I0
tp3343
a(F1491665954.42
I0
tp3344
a(F1491665954.51
I0
tp3345
a(F1491665955.5
I2
tp3346
a(F1491665956.06
I0
tp3347
a(F1491665958.05
I0
tp3348
a(F1491665958.94
I2
tp3349
a(F1491665964.61
I0
tp3350
a(F1491665965.09
I0
tp3351
a(F1491665965.09
I0
tp3352
a(F1491665965.09
I0
tp3353
a(F1491665965.11
I0
tp3354
a(F1491665965.11
I0
tp3355
a(F1491665965.12
I2
tp3356
a(F1491665965.12
I0
tp3357
a(F1491665965.12
I0
tp3358
a(F1491665965.12
I0
tp3359
a(F1491665965.13
I2
tp3360
a(F1491665965.13
I2
tp3361
a(F1491665965.13
I0
tp3362
a(F1491665965.13
I0
tp3363
a(F1491665965.13
I0
tp3364
a(F1491665965.14
I0
tp3365
a(F1491665965.14
I2
tp3366
a(F1491665965.14
I0
tp3367
a(F1491665965.15
I2
tp3368
a(F1491665965.15
I0
tp3369
a(F1491665965.15
I0
tp3370
a(F1491665965.17
I0
tp3371
a(F1491665965.2
I0
tp3372
a(F1491665965.21
I0
tp3373
a(F1491665965.21
I0
tp3374
a(F1491665965.21
I0
tp3375
a(F1491665965.21
I2
tp3376
a(F1491665965.31
I0
tp3377
a(F1491665965.31
I0
tp3378
a(F1491665965.31
I0
tp3379
a(F1491665965.31
I0
tp3380
a(F1491665965.53
I0
tp3381
a(F1491665965.61
I0
tp3382
a(F1491665966.35
I0
tp3383
a(F1491665966.64
I0
tp3384
a(F1491665966.91
I0
tp3385
a(F1491665967.43
I0
tp3386
a(F1491665970.06
I0
tp3387
a(F1491665970.69
I2
tp3388
a(F1491665971.69
I0
tp3389
a(F1491665971.99
I0
tp3390
a(F1491665972.79
I0
tp3391
a(F1491665972.79
I0
tp3392
a(F1491665972.86
I0
tp3393
a(F1491665973.36
I0
tp3394
a(F1491665974.05
I0
tp3395
a(F1491665974.41
I0
tp3396
a(F1491665974.47
I0
tp3397
a(F1491665974.81
I0
tp3398
a(F1491665974.98
I0
tp3399
a(F1491665975.08
I0
tp3400
a(F1491665975.17
I0
tp3401
a(F1491665975.17
I0
tp3402
a(F1491665975.24
I0
tp3403
a(F1491665975.25
I0
tp3404
a(F1491665975.28
I0
tp3405
a(F1491665975.28
I0
tp3406
a(F1491665975.3
I2
tp3407
a(F1491665975.31
I0
tp3408
a(F1491665975.31
I0
tp3409
a(F1491665975.31
I0
tp3410
a(F1491665975.37
I0
tp3411
a(F1491665975.45
I0
tp3412
a(F1491665975.52
I0
tp3413
a(F1491665975.65
I0
tp3414
a(F1491665975.65
I0
tp3415
a(F1491665975.75
I0
tp3416
a(F1491665977.72
I0
tp3417
a(F1491665979.06
I0
tp3418
a(F1491665979.44
I0
tp3419
a(F1491665980.5
I0
tp3420
a(F1491665980.58
I0
tp3421
a(F1491665981.84
I0
tp3422
a(F1491665982.3
I0
tp3423
a(F1491665982.35
I0
tp3424
a(F1491665983.01
I0
tp3425
a(F1491665983.96
I2
tp3426
a(F1491665997.78
I0
tp3427
a(F1491665997.78
I0
tp3428
a(F1491665997.78
I0
tp3429
a(F1491665997.82
I0
tp3430
a(F1491665997.82
I0
tp3431
a(F1491665997.82
I0
tp3432
a(F1491665997.83
I0
tp3433
a(F1491665997.96
I0
tp3434
a(F1491665998.26
I0
tp3435
a(F1491665999.4
I0
tp3436
a(F1491666000.3
I0
tp3437
a(F1491666000.69
I0
tp3438
a(F1491666002.75
I0
tp3439
a(F1491666002.83
I0
tp3440
a(F1491666003.41
I0
tp3441
a(F1491666003.72
I0
tp3442
a(F1491666005.85
I0
tp3443
a(F1491666005.98
I0
tp3444
a(F1491666006.83
I0
tp3445
a(F1491666007.31
I0
tp3446
a(F1491666007.51
I2
tp3447
a(F1491666007.52
I0
tp3448
a(F1491666007.52
I0
tp3449
a(F1491666007.54
I0
tp3450
a(F1491666007.61
I0
tp3451
a(F1491666007.61
I0
tp3452
a(F1491666007.62
I2
tp3453
a(F1491666007.95
I2
tp3454
a(F1491666008.46
I0
tp3455
a(F1491666010.16
I0
tp3456
a(F1491666010.94
I0
tp3457
a(F1491666014.14
I0
tp3458
a(F1491666028.08
I0
tp3459
a(F1491666028.69
I0
tp3460
a(F1491666032.22
I2
tp3461
a(F1491666036.7
I0
tp3462
a(F1491666053.96
I0
tp3463
a(F1491666054.82
I0
tp3464
a(F1491666058.73
I2
tp3465
a(F1491666058.97
I0
tp3466
a(F1491666059.85
I0
tp3467
a(F1491666060.47
I0
tp3468
a(F1491666061.34
I0
tp3469
a(F1491666088.18
I0
tp3470
a(F1491666092.24
I0
tp3471
a(F1491666092.24
I2
tp3472
a(F1491666092.25
I0
tp3473
a(F1491666092.25
I2
tp3474
a(F1491666092.26
I0
tp3475
a(F1491666092.26
I0
tp3476
a(F1491666092.27
I0
tp3477
a(F1491666092.33
I0
tp3478
a(F1491666093.18
I0
tp3479
a(F1491666095.67
I0
tp3480
a(F1491666095.81
I0
tp3481
a(F1491666096.63
I0
tp3482
a(F1491666098.73
I0
tp3483
a(F1491666100.54
I0
tp3484
a(F1491666133.57
I0
tp3485
a(F1491666147.68
I0
tp3486
a(F1491666159.49
I2
tp3487
a(F1491666179.32
I0
tp3488
a(F1491666180.93
I0
tp3489
a(F1491666181.33
I0
tp3490
a(F1491666200.33
I2
tp3491
a(F1491666219.95
I2
tp3492
a(F1491666220.53
I2
tp3493
a(F1491666228.2
I2
tp3494
a(F1491666279.13
I0
tp3495
a(F1491666279.7
I0
tp3496
a(F1491666293.73
I2
tp3497
a(F1491666360.81
I0
tp3498
a(F1491666428.88
I0
tp3499
a(F1491666446.25
I0
tp3500
a(F1491666493.73
I0
tp3501
a(F1491666493.76
I0
tp3502
a(F1491666493.76
I0
tp3503
a(F1491666493.77
I0
tp3504
a(F1491666493.78
I2
tp3505
a(F1491666495.57
I0
tp3506
a(F1491666501.32
I2
tp3507
a(F1491666504.52
I0
tp3508
a(F1491666505.42
I0
tp3509
a(F1491666507.11
I0
tp3510
a(F1491666510.62
I0
tp3511
a(F1491666510.7
I0
tp3512
a(F1491666514.13
I0
tp3513
a(F1491666515.07
I0
tp3514
a(F1491666515.09
I0
tp3515
a(F1491666516.15
I0
tp3516
a(F1491666541.27
I0
tp3517
a(F1491666568.71
I0
tp3518
a(F1491666579.26
I0
tp3519
a(F1491666584.21
I0
tp3520
a(F1491666604.53
I0
tp3521
a(F1491666624.47
I0
tp3522
a(F1491666625.26
I0
tp3523
a(F1491666661.76
I0
tp3524
a(F1491666664.36
I0
tp3525
a(F1491666678.32
I0
tp3526
a(F1491666688.54
I0
tp3527
a(F1491666694.91
I0
tp3528
a(F1491666720.02
I0
tp3529
a(F1491666732.71
I0
tp3530
a(F1491666742.01
I0
tp3531
a(F1491666744.88
I0
tp3532
a(F1491666761.84
I0
tp3533
a(F1491666770.81
I0
tp3534
a(F1491666772.82
I0
tp3535
a(F1491666772.82
I0
tp3536
a(F1491666787.8
I0
tp3537
a(F1491666792.35
I2
tp3538
a(F1491666802.85
I0
tp3539
a(F1491666836.31
I0
tp3540
a(F1491666842.26
I0
tp3541
a(F1491666988.63
I0
tp3542
a(F1491667062.94
I0
tp3543
a(F1491667064.03
I0
tp3544
a(F1491667080.91
I0
tp3545
a(F1491667081.93
I0
tp3546
a(F1491667092.25
I0
tp3547
a(F1491667095.53
I0
tp3548
a(F1491667103.26
I2
tp3549
a(F1491667132.44
I0
tp3550
a(F1491667136.14
I0
tp3551
a(F1491667136.81
I0
tp3552
a(F1491667137.26
I0
tp3553
a(F1491667141.01
I0
tp3554
a(F1491667146.99
I0
tp3555
a(F1491667147.77
I0
tp3556
a(F1491667153.7
I0
tp3557
a(F1491667154.53
I0
tp3558
a(F1491667162.17
I0
tp3559
a(F1491667206.62
I0
tp3560
a(F1491667211.24
I2
tp3561
a(F1491667235.41
I2
tp3562
a(F1491667249.32
I0
tp3563
a(F1491667253.28
I0
tp3564
a(F1491667254.86
I0
tp3565
a(F1491667258.43
I0
tp3566
a(F1491667265.47
I0
tp3567
a(F1491667278.47
I2
tp3568
a(F1491667404.26
I2
tp3569
a(F1491667467.01
I2
tp3570
a(F1491667519.86
I2
tp3571
a(F1491667547.82
I2
tp3572
a(F1491667705.26
I2
tp3573
a(F1491667727.65
I0
tp3574
a(F1491667832.85
I2
tp3575
a(F1491667868.34
I2
tp3576
a(F1491667889.43
I0
tp3577
a(F1491668006.26
I2
tp3578
a(F1491668006.54
I2
tp3579
a(F1491668108.34
I2
tp3580
a(F1491668161.39
I2
tp3581
a(F1491668232.67
I0
tp3582
a(F1491668246.94
I2
tp3583
a(F1491668251.39
I0
tp3584
a(F1491668251.4
I0
tp3585
a(F1491668251.41
I0
tp3586
a(F1491668251.41
I0
tp3587
a(F1491668251.54
I0
tp3588
a(F1491668251.54
I0
tp3589
a(F1491668251.74
I0
tp3590
a(F1491668252.78
I0
tp3591
a(F1491668254.4
I0
tp3592
a(F1491668262.38
I0
tp3593
a(F1491668271.1
I2
tp3594
a(F1491668271.95
I2
tp3595
a(F1491668271.96
I2
tp3596
a(F1491668272.03
I2
tp3597
a(F1491668272.04
I2
tp3598
a(F1491668272.06
I0
tp3599
a(F1491668275.07
I0
tp3600
a(F1491668286.23
I0
tp3601
a(F1491668307.26
I2
tp3602
a(F1491668319.58
I0
tp3603
a(F1491668326.8
I0
tp3604
a(F1491668395.67
I0
tp3605
a(F1491668411.16
I2
tp3606
a(F1491668432.91
I0
tp3607
a(F1491668434.77
I0
tp3608
a(F1491668511.55
I2
tp3609
a(F1491668517.2
I0
tp3610
a(F1491668562.97
I0
tp3611
a(F1491668568.14
I0
tp3612
a(F1491668608.27
I2
tp3613
a(F1491668668.15
I0
tp3614
a(F1491668795.94
I2
tp3615
a(F1491668812.35
I2
tp3616
a(F1491668812.35
I2
tp3617
a(F1491668812.42
I0
tp3618
a(F1491668812.42
I0
tp3619
a(F1491668812.43
I2
tp3620
a(F1491668812.44
I2
tp3621
a(F1491668812.44
I2
tp3622
a(F1491668812.45
I2
tp3623
a(F1491668812.46
I2
tp3624
a(F1491668812.55
I2
tp3625
a(F1491668813.79
I2
tp3626
a(F1491668813.79
I2
tp3627
a(F1491668813.81
I0
tp3628
a(F1491668814.0
I2
tp3629
a(F1491668814.0
I2
tp3630
a(F1491668817.98
I0
tp3631
a(F1491668821.14
I0
tp3632
a(F1491668821.31
I0
tp3633
a(F1491668837.51
I0
tp3634
a(F1491668838.03
I0
tp3635
a(F1491668838.03
I0
tp3636
a(F1491668838.03
I0
tp3637
a(F1491668838.03
I0
tp3638
a(F1491668838.03
I0
tp3639
a(F1491668838.03
I0
tp3640
a(F1491668846.04
I0
tp3641
a(F1491668860.77
I0
tp3642
a(F1491668865.36
I0
tp3643
a(F1491668893.95
I0
tp3644
a(F1491668909.25
I2
tp3645
a(F1491668913.42
I0
tp3646
a(F1491668914.17
I0
tp3647
a(F1491668914.25
I0
tp3648
a(F1491668914.27
I0
tp3649
a(F1491668930.4
I0
tp3650
a(F1491668930.4
I2
tp3651
a(F1491668930.42
I0
tp3652
a(F1491668930.42
I0
tp3653
a(F1491668930.43
I0
tp3654
a(F1491668930.45
I2
tp3655
a(F1491668930.87
I0
tp3656
a(F1491668982.22
I0
tp3657
a(F1491668983.16
I0
tp3658
a(F1491668992.84
I2
tp3659
a(F1491668993.27
I0
tp3660
a(F1491669027.48
I0
tp3661
a(F1491669089.25
I2
tp3662
a(F1491669144.12
I2
tp3663
a(F1491669172.62
I0
tp3664
a(F1491669173.02
I2
tp3665
a(F1491669173.43
I0
tp3666
a(F1491669210.25
I2
tp3667
a(F1491669224.18
I0
tp3668
a(F1491669225.01
I0
tp3669
a(F1491669267.46
I0
tp3670
a(F1491669343.92
I0
tp3671
a(F1491669352.72
I0
tp3672
a(F1491669396.94
I0
tp3673
a(F1491669397.76
I2
tp3674
a(F1491669397.76
I0
tp3675
a(F1491669397.76
I2
tp3676
a(F1491669397.76
I2
tp3677
a(F1491669397.76
I2
tp3678
a(F1491669397.76
I0
tp3679
a(F1491669397.77
I2
tp3680
a(F1491669397.77
I2
tp3681
a(F1491669397.77
I0
tp3682
a(F1491669397.77
I0
tp3683
a(F1491669397.81
I0
tp3684
a(F1491669398.9
I0
tp3685
a(F1491669399.21
I0
tp3686
a(F1491669399.22
I0
tp3687
a(F1491669399.22
I0
tp3688
a(F1491669399.26
I0
tp3689
a(F1491669400.45
I0
tp3690
a(F1491669407.82
I0
tp3691
a(F1491669409.39
I2
tp3692
a(F1491669409.64
I0
tp3693
a(F1491669409.64
I0
tp3694
a(F1491669409.77
I2
tp3695
a(F1491669413.68
I0
tp3696
a(F1491669413.92
I0
tp3697
a(F1491669414.31
I0
tp3698
a(F1491669427.94
I0
tp3699
a(F1491669454.98
I0
tp3700
a(F1491669454.99
I0
tp3701
a(F1491669511.27
I2
tp3702
a(F1491669610.95
I0
tp3703
a(F1491669632.85
I2
tp3704
a(F1491669672.69
I2
tp3705
a(F1491669698.43
I0
tp3706
a(F1491669764.95
I2
tp3707
a(F1491669806.65
I0
tp3708
a(F1491669822.69
I0
tp3709
a(F1491669892.31
I0
tp3710
a(F1491669914.32
I2
tp3711
a(F1491669944.91
I0
tp3712
a(F1491669987.02
I2
tp3713
a(F1491670020.96
I2
tp3714
a(F1491670113.27
I2
tp3715
a(F1491670305.69
I0
tp3716
a(F1491670401.43
I2
tp3717
a(F1491670428.82
I2
tp3718
a(F1491670515.26
I2
tp3719
a(F1491670649.84
I2
tp3720
a(F1491670672.18
I0
tp3721
a(F1491670714.26
I2
tp3722
a(F1491670811.22
I2
tp3723
a(F1491670890.25
I2
tp3724
a(F1491671015.26
I2
tp3725
a(F1491671156.12
I2
tp3726
a(F1491671272.43
I0
tp3727
a(F1491671316.35
I2
tp3728
a(F1491671432.88
I2
tp3729
a(F1491671617.32
I2
tp3730
a(F1491671656.24
I0
tp3731
a(F1491671656.32
I0
tp3732
a(F1491671656.43
I0
tp3733
a(F1491671656.48
I0
tp3734
a(F1491671673.28
I0
tp3735
a(F1491671676.77
I0
tp3736
a(F1491671678.21
I0
tp3737
a(F1491671681.24
I2
tp3738
a(F1491671693.33
I0
tp3739
a(F1491671696.51
I2
tp3740
a(F1491671696.69
I0
tp3741
a(F1491671697.28
I2
tp3742
a(F1491671717.36
I0
tp3743
a(F1491671717.37
I0
tp3744
a(F1491671717.37
I0
tp3745
a(F1491671717.4
I0
tp3746
a(F1491671717.4
I0
tp3747
a(F1491671717.79
I2
tp3748
a(F1491671717.79
I2
tp3749
a(F1491671718.37
I2
tp3750
a(F1491671718.92
I0
tp3751
a(F1491671719.24
I2
tp3752
a(F1491671719.24
I2
tp3753
a(F1491671719.59
I2
tp3754
a(F1491671721.59
I0
tp3755
a(F1491671722.0
I0
tp3756
a(F1491671722.33
I2
tp3757
a(F1491671733.7
I0
tp3758
a(F1491671733.7
I0
tp3759
a(F1491671737.06
I0
tp3760
a(F1491671741.96
I0
tp3761
a(F1491671758.53
I0
tp3762
a(F1491671759.56
I0
tp3763
a(F1491671781.07
I2
tp3764
a(F1491671783.15
I0
tp3765
a(F1491671785.98
I2
tp3766
a(F1491671785.99
I2
tp3767
a(F1491671785.99
I2
tp3768
a(F1491671786.35
I0
tp3769
a(F1491671786.63
I0
tp3770
a(F1491671786.68
I0
tp3771
a(F1491671786.72
I0
tp3772
a(F1491671786.73
I0
tp3773
a(F1491671793.62
I0
tp3774
a(F1491671804.81
I0
tp3775
a(F1491671834.47
I0
tp3776
a(F1491671837.64
I0
tp3777
a(F1491671838.52
I0
tp3778
a(F1491671845.59
I2
tp3779
a(F1491671883.42
I2
tp3780
a(F1491671885.65
I0
tp3781
a(F1491671885.65
I0
tp3782
a(F1491671907.32
I0
tp3783
a(F1491671918.26
I2
tp3784
a(F1491671972.43
I0
tp3785
a(F1491671997.5
I2
tp3786
a(F1491672036.09
I2
tp3787
a(F1491672078.27
I0
tp3788
a(F1491672093.32
I0
tp3789
a(F1491672093.32
I0
tp3790
a(F1491672093.32
I0
tp3791
a(F1491672093.32
I0
tp3792
a(F1491672093.32
I0
tp3793
a(F1491672093.64
I0
tp3794
a(F1491672147.34
I0
tp3795
a(F1491672157.64
I0
tp3796
a(F1491672174.7
I2
tp3797
a(F1491672219.27
I2
tp3798
a(F1491672296.04
I2
tp3799
a(F1491672376.95
I0
tp3800
a(F1491672381.5
I0
tp3801
a(F1491672386.09
I2
tp3802
a(F1491672389.35
I2
tp3803
a(F1491672423.27
I2
tp3804
a(F1491672473.86
I2
tp3805
a(F1491672520.26
I2
tp3806
a(F1491672565.42
I2
tp3807
a(F1491672599.65
I0
tp3808
a(F1491672691.25
I2
tp3809
a(F1491672801.49
I0
tp3810
a(F1491672851.03
I2
tp3811
a(F1491672930.66
I0
tp3812
a(F1491673006.28
I0
tp3813
a(F1491673009.56
I0
tp3814
a(F1491673010.98
I0
tp3815
a(F1491673010.98
I0
tp3816
a(F1491673012.26
I0
tp3817
a(F1491673016.2
I0
tp3818
a(F1491673017.38
I0
tp3819
a(F1491673021.46
I0
tp3820
a(F1491673021.46
I0
tp3821
a(F1491673021.49
I2
tp3822
a(F1491673021.54
I0
tp3823
a(F1491673021.58
I0
tp3824
a(F1491673022.41
I0
tp3825
a(F1491673036.11
I0
tp3826
a(F1491673036.94
I0
tp3827
a(F1491673040.55
I0
tp3828
a(F1491673043.15
I0
tp3829
a(F1491673044.57
I0
tp3830
a(F1491673045.72
I0
tp3831
a(F1491673050.87
I0
tp3832
a(F1491673061.63
I0
tp3833
a(F1491673061.9
I0
tp3834
a(F1491673065.27
I0
tp3835
a(F1491673067.19
I0
tp3836
a(F1491673068.19
I0
tp3837
a(F1491673069.32
I0
tp3838
a(F1491673073.05
I0
tp3839
a(F1491673073.81
I0
tp3840
a(F1491673073.81
I0
tp3841
a(F1491673073.81
I0
tp3842
a(F1491673073.81
I0
tp3843
a(F1491673073.82
I0
tp3844
a(F1491673073.83
I0
tp3845
a(F1491673073.83
I0
tp3846
a(F1491673073.84
I0
tp3847
a(F1491673073.84
I0
tp3848
a(F1491673073.84
I0
tp3849
a(F1491673073.84
I0
tp3850
a(F1491673073.85
I0
tp3851
a(F1491673073.85
I2
tp3852
a(F1491673073.85
I0
tp3853
a(F1491673073.9
I0
tp3854
a(F1491673073.9
I0
tp3855
a(F1491673073.93
I2
tp3856
a(F1491673073.96
I2
tp3857
a(F1491673073.96
I0
tp3858
a(F1491673073.96
I0
tp3859
a(F1491673073.99
I0
tp3860
a(F1491673073.99
I0
tp3861
a(F1491673074.71
I0
tp3862
a(F1491673074.85
I0
tp3863
a(F1491673078.22
I2
tp3864
a(F1491673078.81
I0
tp3865
a(F1491673079.45
I0
tp3866
a(F1491673080.8
I2
tp3867
a(F1491673080.8
I2
tp3868
a(F1491673080.8
I0
tp3869
a(F1491673080.8
I2
tp3870
a(F1491673080.8
I0
tp3871
a(F1491673080.81
I0
tp3872
a(F1491673080.81
I0
tp3873
a(F1491673080.81
I0
tp3874
a(F1491673080.87
I0
tp3875
a(F1491673080.91
I0
tp3876
a(F1491673080.95
I0
tp3877
a(F1491673081.56
I0
tp3878
a(F1491673082.42
I0
tp3879
a(F1491673083.79
I0
tp3880
a(F1491673083.96
I2
tp3881
a(F1491673083.96
I2
tp3882
a(F1491673083.96
I0
tp3883
a(F1491673084.42
I0
tp3884
a(F1491673084.68
I0
tp3885
a(F1491673085.05
I2
tp3886
a(F1491673085.24
I0
tp3887
a(F1491673085.26
I0
tp3888
a(F1491673086.02
I0
tp3889
a(F1491673086.75
I0
tp3890
a(F1491673087.42
I2
tp3891
a(F1491673088.44
I0
tp3892
a(F1491673088.53
I2
tp3893
a(F1491673095.37
I2
tp3894
a(F1491673095.4
I0
tp3895
a(F1491673096.57
I0
tp3896
a(F1491673100.16
I0
tp3897
a(F1491673100.89
I0
tp3898
a(F1491673100.91
I0
tp3899
a(F1491673122.27
I2
tp3900
a(F1491673125.62
I0
tp3901
a(F1491673129.89
I0
tp3902
a(F1491673132.78
I0
tp3903
a(F1491673133.71
I0
tp3904
a(F1491673137.0
I0
tp3905
a(F1491673182.7
I0
tp3906
a(F1491673186.06
I0
tp3907
a(F1491673188.46
I0
tp3908
a(F1491673191.02
I0
tp3909
a(F1491673196.06
I0
tp3910
a(F1491673196.33
I0
tp3911
a(F1491673203.44
I0
tp3912
a(F1491673203.49
I0
tp3913
a(F1491673203.51
I0
tp3914
a(F1491673203.51
I0
tp3915
a(F1491673203.51
I0
tp3916
a(F1491673203.54
I0
tp3917
a(F1491673203.57
I0
tp3918
a(F1491673203.64
I0
tp3919
a(F1491673203.71
I0
tp3920
a(F1491673205.98
I0
tp3921
a(F1491673206.58
I2
tp3922
a(F1491673207.94
I0
tp3923
a(F1491673208.92
I0
tp3924
a(F1491673210.74
I0
tp3925
a(F1491673210.99
I0
tp3926
a(F1491673211.02
I0
tp3927
a(F1491673211.09
I0
tp3928
a(F1491673211.24
I2
tp3929
a(F1491673217.26
I0
tp3930
a(F1491673232.85
I2
tp3931
a(F1491673249.74
I0
tp3932
a(F1491673265.34
I0
tp3933
a(F1491673266.35
I0
tp3934
a(F1491673267.99
I2
tp3935
a(F1491673267.99
I0
tp3936
a(F1491673268.15
I2
tp3937
a(F1491673269.94
I0
tp3938
a(F1491673270.7
I0
tp3939
a(F1491673271.12
I2
tp3940
a(F1491673271.5
I0
tp3941
a(F1491673271.85
I0
tp3942
a(F1491673278.36
I0
tp3943
a(F1491673280.14
I0
tp3944
a(F1491673280.76
I2
tp3945
a(F1491673280.84
I0
tp3946
a(F1491673281.65
I0
tp3947
a(F1491673284.88
I0
tp3948
a(F1491673285.36
I0
tp3949
a(F1491673289.48
I0
tp3950
a(F1491673289.89
I0
tp3951
a(F1491673296.24
I0
tp3952
a(F1491673299.93
I0
tp3953
a(F1491673300.12
I0
tp3954
a(F1491673300.96
I0
tp3955
a(F1491673324.98
I0
tp3956
a(F1491673325.68
I0
tp3957
a(F1491673326.89
I0
tp3958
a(F1491673327.37
I0
tp3959
a(F1491673343.76
I0
tp3960
a(F1491673350.66
I0
tp3961
a(F1491673365.16
I2
tp3962
a(F1491673365.8
I2
tp3963
a(F1491673365.82
I2
tp3964
a(F1491673366.07
I2
tp3965
a(F1491673366.08
I2
tp3966
a(F1491673366.12
I2
tp3967
a(F1491673366.37
I2
tp3968
a(F1491673366.42
I2
tp3969
a(F1491673378.13
I0
tp3970
a(F1491673423.3
I2
tp3971
a(F1491673435.91
I0
tp3972
a(F1491673497.31
I2
tp3973
a(F1491673510.37
I0
tp3974
a(F1491673511.01
I0
tp3975
a(F1491673512.4
I0
tp3976
a(F1491673537.98
I0
tp3977
a(F1491673541.38
I0
tp3978
a(F1491673541.55
I0
tp3979
a(F1491673551.38
I0
tp3980
a(F1491673561.57
I0
tp3981
a(F1491673580.46
I0
tp3982
a(F1491673581.58
I0
tp3983
a(F1491673605.97
I2
tp3984
a(F1491673628.07
I0
tp3985
a(F1491673719.08
I2
tp3986
a(F1491673745.18
I0
tp3987
a(F1491673748.26
I2
tp3988
a(F1491673777.03
I2
tp3989
a(F1491673777.03
I2
tp3990
a(F1491673777.04
I2
tp3991
a(F1491673777.04
I2
tp3992
a(F1491673777.04
I0
tp3993
a(F1491673777.04
I2
tp3994
a(F1491673777.05
I2
tp3995
a(F1491673777.05
I2
tp3996
a(F1491673777.05
I2
tp3997
a(F1491673777.36
I2
tp3998
a(F1491673778.79
I2
tp3999
a(F1491673778.79
I2
tp4000
a(F1491673778.79
I0
tp4001
a(F1491673783.11
I0
tp4002
a(F1491673783.11
I0
tp4003
a(F1491673788.78
I0
tp4004
a(F1491673791.19
I0
tp4005
a(F1491673845.1
I2
tp4006
a(F1491673893.79
I0
tp4007
a(F1491673897.36
I0
tp4008
a(F1491673917.76
I0
tp4009
a(F1491673918.69
I0
tp4010
a(F1491671093.48
I0
tp4011
a(F1491671098.27
I2
tp4012
a(F1491671111.37
I0
tp4013
a(F1491671149.25
I0
tp4014
a(F1491638754.19
I0
tp4015
a(F1491638759.98
I0
tp4016
a(F1491638760.04
I0
tp4017
a(F1491638770.61
I0
tp4018
a(F1491638771.13
I0
tp4019
a(F1491657996.08
I0
tp4020
a(F1491657996.2
I0
tp4021
a(F1491658003.51
I0
tp4022
a(F1491658009.16
I0
tp4023
a(F1491658010.26
I2
tp4024
a(F1491658053.39
I2
tp4025
a(F1491658103.73
I0
tp4026
a(F1491658114.12
I0
tp4027
a(F1491658116.24
I0
tp4028
a(F1491658116.34
I2
tp4029
a(F1491658118.02
I0
tp4030
a(F1491658119.08
I0
tp4031
a(F1491658119.46
I0
tp4032
a(F1491658119.86
I0
tp4033
a(F1491658121.06
I0
tp4034
a(F1491658121.37
I0
tp4035
a(F1491658121.45
I2
tp4036
a(F1491658130.0
I0
tp4037
a(F1491658130.0
I2
tp4038
a(F1491658166.32
I0
tp4039
a(F1491658166.42
I0
tp4040
a(F1491658166.99
I0
tp4041
a(F1491658180.37
I0
tp4042
a(F1491658185.85
I0
tp4043
a(F1491658196.79
I0
tp4044
a(F1491658197.96
I0
tp4045
a(F1491658198.0
I0
tp4046
a(F1491658202.9
I2
tp4047
a(F1491658203.46
I2
tp4048
a(F1491658211.42
I0
tp4049
a(F1491658213.21
I2
tp4050
a(F1491658231.13
I0
tp4051
a(F1491658261.61
I0
tp4052
a(F1491658299.9
I0
tp4053
a(F1491658302.04
I0
tp4054
a(F1491658302.18
I0
tp4055
a(F1491658313.21
I0
tp4056
a(F1491658313.38
I0
tp4057
a(F1491658333.03
I2
tp4058
a(F1491658351.39
I0
tp4059
a(F1491658354.2
I0
tp4060
a(F1491658360.59
I0
tp4061
a(F1491658476.48
I0
tp4062
a(F1491658494.81
I2
tp4063
a(F1491658494.81
I2
tp4064
a(F1491658512.93
I2
tp4065
a(F1491658513.84
I0
tp4066
a(F1491658514.42
I0
tp4067
a(F1491658535.83
I0
tp4068
a(F1491658539.92
I0
tp4069
a(F1491658540.03
I2
tp4070
a(F1491658540.47
I2
tp4071
a(F1491658541.02
I0
tp4072
a(F1491658541.94
I2
tp4073
a(F1491658541.96
I2
tp4074
a(F1491658586.47
I0
tp4075
a(F1491658586.47
I0
tp4076
a(F1491658586.59
I0
tp4077
a(F1491658597.16
I0
tp4078
a(F1491658597.75
I0
tp4079
a(F1491658597.76
I0
tp4080
a(F1491658610.72
I0
tp4081
a(F1491658627.21
I0
tp4082
a(F1491658627.76
I0
tp4083
a(F1491658652.09
I0
tp4084
a(F1491658759.1
I0
tp4085
a(F1491658762.33
I0
tp4086
a(F1491658769.55
I0
tp4087
a(F1491658770.19
I2
tp4088
a(F1491658773.57
I0
tp4089
a(F1491658774.39
I0
tp4090
a(F1491658774.86
I0
tp4091
a(F1491658779.45
I0
tp4092
a(F1491658789.15
I0
tp4093
a(F1491658817.83
I0
tp4094
a(F1491658819.08
I0
tp4095
a(F1491658819.62
I2
tp4096
a(F1491658820.13
I2
tp4097
a(F1491658825.44
I0
tp4098
a(F1491658825.45
I0
tp4099
a(F1491658826.54
I0
tp4100
a(F1491658832.04
I0
tp4101
a(F1491658832.08
I0
tp4102
a(F1491658833.2
I0
tp4103
a(F1491658848.93
I0
tp4104
a(F1491658860.83
I0
tp4105
a(F1491658883.29
I0
tp4106
a(F1491658887.23
I0
tp4107
a(F1491658896.05
I0
tp4108
a(F1491658896.05
I0
tp4109
a(F1491658942.19
I2
tp4110
a(F1491658945.55
I0
tp4111
a(F1491658946.01
I0
tp4112
a(F1491658965.04
I0
tp4113
a(F1491658990.65
I0
tp4114
a(F1491658992.93
I0
tp4115
a(F1491659008.15
I0
tp4116
a(F1491659012.49
I0
tp4117
a(F1491659014.13
I0
tp4118
a(F1491659017.79
I0
tp4119
a(F1491659034.26
I0
tp4120
a(F1491659073.78
I0
tp4121
a(F1491659094.47
I0
tp4122
a(F1491659111.32
I0
tp4123
a(F1491659154.56
I0
tp4124
a(F1491659202.03
I2
tp4125
a(F1491659215.5
I0
tp4126
a(F1491659219.05
I0
tp4127
a(F1491659219.91
I0
tp4128
a(F1491659268.14
I0
tp4129
a(F1491659283.94
I0
tp4130
a(F1491659285.75
I0
tp4131
a(F1491659292.98
I0
tp4132
a(F1491659305.95
I0
tp4133
a(F1491659305.96
I0
tp4134
a(F1491659307.03
I2
tp4135
a(F1491659349.24
I0
tp4136
a(F1491659350.52
I0
tp4137
a(F1491659360.69
I0
tp4138
a(F1491659361.24
I0
tp4139
a(F1491659361.55
I0
tp4140
a(F1491659361.61
I0
tp4141
a(F1491659361.64
I0
tp4142
a(F1491659361.7
I0
tp4143
a(F1491659361.85
I2
tp4144
a(F1491659361.97
I0
tp4145
a(F1491659362.3
I0
tp4146
a(F1491659362.33
I0
tp4147
a(F1491659362.41
I0
tp4148
a(F1491659362.99
I0
tp4149
a(F1491659397.21
I0
tp4150
a(F1491659397.25
I0
tp4151
a(F1491659397.27
I0
tp4152
a(F1491659397.3
I0
tp4153
a(F1491659397.31
I0
tp4154
a(F1491659397.31
I0
tp4155
a(F1491659398.42
I0
tp4156
a(F1491659398.42
I0
tp4157
a(F1491659407.84
I0
tp4158
a(F1491659407.85
I0
tp4159
a(F1491659407.91
I0
tp4160
a(F1491659407.92
I0
tp4161
a(F1491659407.93
I0
tp4162
a(F1491659407.93
I0
tp4163
a(F1491659407.95
I0
tp4164
a(F1491659407.95
I0
tp4165
a(F1491659407.97
I0
tp4166
a(F1491659407.98
I0
tp4167
a(F1491659408.05
I0
tp4168
a(F1491659408.06
I0
tp4169
a(F1491659408.08
I0
tp4170
a(F1491659408.1
I0
tp4171
a(F1491659408.11
I0
tp4172
a(F1491659408.13
I0
tp4173
a(F1491659408.94
I0
tp4174
a(F1491659409.05
I0
tp4175
a(F1491659409.06
I0
tp4176
a(F1491659409.07
I0
tp4177
a(F1491659409.1
I0
tp4178
a(F1491659409.1
I0
tp4179
a(F1491659409.13
I0
tp4180
a(F1491659409.14
I0
tp4181
a(F1491659409.14
I0
tp4182
a(F1491659409.16
I0
tp4183
a(F1491659409.25
I0
tp4184
a(F1491659409.26
I2
tp4185
a(F1491659409.26
I0
tp4186
a(F1491659409.28
I0
tp4187
a(F1491659409.3
I0
tp4188
a(F1491659409.33
I2
tp4189
a(F1491659409.34
I2
tp4190
a(F1491659409.36
I2
tp4191
a(F1491659409.36
I2
tp4192
a(F1491659409.39
I2
tp4193
a(F1491659444.07
I0
tp4194
a(F1491659459.22
I0
tp4195
a(F1491659528.4
I0
tp4196
a(F1491659593.58
I0
tp4197
a(F1491659611.51
I0
tp4198
a(F1491659646.47
I0
tp4199
a(F1491659650.73
I0
tp4200
a(F1491659654.74
I2
tp4201
a(F1491659706.85
I0
tp4202
a(F1491659725.2
I0
tp4203
a(F1491659726.53
I0
tp4204
a(F1491659728.11
I2
tp4205
a(F1491659728.81
I2
tp4206
a(F1491659730.48
I0
tp4207
a(F1491659734.68
I0
tp4208
a(F1491659735.16
I2
tp4209
a(F1491659740.03
I0
tp4210
a(F1491659747.87
I0
tp4211
a(F1491659749.81
I0
tp4212
a(F1491659793.0
I0
tp4213
a(F1491659825.44
I0
tp4214
a(F1491659829.29
I2
tp4215
a(F1491659829.29
I2
tp4216
a(F1491659829.29
I2
tp4217
a(F1491659829.29
I0
tp4218
a(F1491659829.29
I0
tp4219
a(F1491659829.3
I0
tp4220
a(F1491659829.36
I0
tp4221
a(F1491659830.9
I0
tp4222
a(F1491659831.74
I0
tp4223
a(F1491659953.69
I0
tp4224
a(F1491659964.99
I0
tp4225
a(F1491659978.29
I0
tp4226
a(F1491659979.34
I2
tp4227
a(F1491659980.47
I0
tp4228
a(F1491659980.47
I0
tp4229
a(F1491659981.35
I0
tp4230
a(F1491659983.39
I2
tp4231
a(F1491660143.33
I0
tp4232
a(F1491660174.01
I0
tp4233
a(F1491660190.58
I0
tp4234
a(F1491660246.7
I0
tp4235
a(F1491660247.77
I0
tp4236
a(F1491660267.82
I0
tp4237
a(F1491660278.48
I0
tp4238
a(F1491660352.99
I0
tp4239
a(F1491660362.04
I0
tp4240
a(F1491660431.81
I0
tp4241
a(F1491660443.47
I0
tp4242
a(F1491660489.44
I0
tp4243
a(F1491660509.5
I0
tp4244
a(F1491660608.16
I0
tp4245
a(F1491660609.13
I2
tp4246
a(F1491660609.46
I2
tp4247
a(F1491660612.7
I0
tp4248
a(F1491660635.02
I0
tp4249
a(F1491660643.83
I0
tp4250
a(F1491660661.43
I0
tp4251
a(F1491660669.75
I0
tp4252
a(F1491660696.03
I0
tp4253
a(F1491660743.88
I0
tp4254
a(F1491660785.47
I0
tp4255
a(F1491660785.47
I0
tp4256
a(F1491660785.47
I2
tp4257
a(F1491660785.47
I0
tp4258
a(F1491660785.47
I0
tp4259
a(F1491660785.47
I0
tp4260
a(F1491660785.48
I0
tp4261
a(F1491660785.48
I0
tp4262
a(F1491660785.48
I0
tp4263
a(F1491660785.48
I0
tp4264
a(F1491660785.49
I0
tp4265
a(F1491660785.5
I0
tp4266
a(F1491660785.5
I2
tp4267
a(F1491660785.5
I2
tp4268
a(F1491660785.5
I0
tp4269
a(F1491660785.5
I0
tp4270
a(F1491660785.5
I0
tp4271
a(F1491660785.51
I2
tp4272
a(F1491660785.51
I0
tp4273
a(F1491660785.51
I0
tp4274
a(F1491660785.51
I2
tp4275
a(F1491660785.53
I0
tp4276
a(F1491660785.53
I0
tp4277
a(F1491660785.53
I0
tp4278
a(F1491660785.53
I0
tp4279
a(F1491660785.56
I0
tp4280
a(F1491660785.56
I0
tp4281
a(F1491660785.56
I2
tp4282
a(F1491660785.74
I0
tp4283
a(F1491660785.74
I0
tp4284
a(F1491660786.01
I0
tp4285
a(F1491660786.11
I0
tp4286
a(F1491660786.11
I0
tp4287
a(F1491660787.5
I0
tp4288
a(F1491660788.56
I0
tp4289
a(F1491660788.59
I0
tp4290
a(F1491660789.08
I0
tp4291
a(F1491660789.17
I0
tp4292
a(F1491660789.21
I0
tp4293
a(F1491660789.22
I0
tp4294
a(F1491660789.27
I2
tp4295
a(F1491660789.56
I0
tp4296
a(F1491660790.14
I2
tp4297
a(F1491660790.67
I0
tp4298
a(F1491660799.22
I2
tp4299
a(F1491660825.02
I2
tp4300
a(F1491660841.57
I0
tp4301
a(F1491660841.57
I0
tp4302
a(F1491660841.57
I2
tp4303
a(F1491660841.64
I0
tp4304
a(F1491660841.66
I0
tp4305
a(F1491660862.48
I0
tp4306
a(F1491660913.38
I0
tp4307
a(F1491660969.06
I0
tp4308
a(F1491660970.17
I0
tp4309
a(F1491661030.52
I0
tp4310
a(F1491661051.36
I0
tp4311
a(F1491661064.31
I0
tp4312
a(F1491661071.41
I0
tp4313
a(F1491661071.7
I0
tp4314
a(F1491661072.04
I2
tp4315
a(F1491661072.04
I0
tp4316
a(F1491661072.05
I0
tp4317
a(F1491661072.37
I0
tp4318
a(F1491661072.41
I0
tp4319
a(F1491661072.41
I0
tp4320
a(F1491661073.32
I0
tp4321
a(F1491661073.92
I0
tp4322
a(F1491661073.98
I0
tp4323
a(F1491661073.98
I0
tp4324
a(F1491661074.03
I0
tp4325
a(F1491661074.04
I0
tp4326
a(F1491661074.04
I0
tp4327
a(F1491661074.07
I0
tp4328
a(F1491661074.07
I0
tp4329
a(F1491661074.07
I0
tp4330
a(F1491661074.07
I0
tp4331
a(F1491661074.08
I0
tp4332
a(F1491661074.08
I0
tp4333
a(F1491661074.09
I0
tp4334
a(F1491661074.12
I0
tp4335
a(F1491661074.14
I0
tp4336
a(F1491661074.14
I0
tp4337
a(F1491661074.17
I0
tp4338
a(F1491661074.19
I0
tp4339
a(F1491661074.21
I0
tp4340
a(F1491661074.21
I0
tp4341
a(F1491661074.21
I2
tp4342
a(F1491661074.22
I0
tp4343
a(F1491661074.23
I0
tp4344
a(F1491661074.25
I0
tp4345
a(F1491661074.27
I0
tp4346
a(F1491661074.37
I0
tp4347
a(F1491661074.65
I0
tp4348
a(F1491661074.79
I2
tp4349
a(F1491661074.79
I2
tp4350
a(F1491661074.82
I0
tp4351
a(F1491661075.4
I0
tp4352
a(F1491661075.4
I0
tp4353
a(F1491661075.59
I0
tp4354
a(F1491661076.06
I0
tp4355
a(F1491661076.38
I0
tp4356
a(F1491661076.83
I0
tp4357
a(F1491661077.46
I0
tp4358
a(F1491661077.54
I0
tp4359
a(F1491661079.51
I2
tp4360
a(F1491661082.72
I2
tp4361
a(F1491661089.0
I0
tp4362
a(F1491661091.61
I0
tp4363
a(F1491661115.51
I0
tp4364
a(F1491661116.34
I0
tp4365
a(F1491661129.19
I0
tp4366
a(F1491661146.15
I0
tp4367
a(F1491661155.77
I0
tp4368
a(F1491661155.87
I2
tp4369
a(F1491661156.69
I0
tp4370
a(F1491661156.82
I0
tp4371
a(F1491661156.86
I0
tp4372
a(F1491661156.93
I0
tp4373
a(F1491661158.0
I0
tp4374
a(F1491661158.03
I0
tp4375
a(F1491661158.26
I0
tp4376
a(F1491661158.33
I0
tp4377
a(F1491661158.64
I0
tp4378
a(F1491661158.64
I0
tp4379
a(F1491661158.64
I0
tp4380
a(F1491661158.8
I0
tp4381
a(F1491661160.01
I2
tp4382
a(F1491661160.04
I0
tp4383
a(F1491661160.39
I0
tp4384
a(F1491661160.39
I2
tp4385
a(F1491661160.39
I0
tp4386
a(F1491661160.47
I0
tp4387
a(F1491661160.49
I0
tp4388
a(F1491661160.54
I0
tp4389
a(F1491661160.6
I0
tp4390
a(F1491661160.68
I0
tp4391
a(F1491661160.91
I0
tp4392
a(F1491661161.0
I0
tp4393
a(F1491661161.09
I0
tp4394
a(F1491661161.12
I0
tp4395
a(F1491661161.17
I2
tp4396
a(F1491661161.19
I0
tp4397
a(F1491661161.29
I0
tp4398
a(F1491661161.49
I0
tp4399
a(F1491661161.71
I0
tp4400
a(F1491661162.08
I0
tp4401
a(F1491661162.08
I0
tp4402
a(F1491661162.09
I0
tp4403
a(F1491661162.1
I0
tp4404
a(F1491661162.14
I2
tp4405
a(F1491661162.16
I0
tp4406
a(F1491661162.16
I0
tp4407
a(F1491661162.19
I0
tp4408
a(F1491661162.2
I0
tp4409
a(F1491661162.25
I0
tp4410
a(F1491661162.3
I0
tp4411
a(F1491661162.83
I0
tp4412
a(F1491661163.13
I2
tp4413
a(F1491661164.63
I0
tp4414
a(F1491661169.8
I0
tp4415
a(F1491661171.21
I0
tp4416
a(F1491661210.75
I0
tp4417
a(F1491661211.85
I0
tp4418
a(F1491661212.02
I0
tp4419
a(F1491661230.81
I0
tp4420
a(F1491661273.76
I0
tp4421
a(F1491661274.99
I0
tp4422
a(F1491661275.08
I0
tp4423
a(F1491661275.08
I0
tp4424
a(F1491661275.08
I0
tp4425
a(F1491661275.08
I0
tp4426
a(F1491661275.11
I0
tp4427
a(F1491661275.29
I0
tp4428
a(F1491661305.86
I0
tp4429
a(F1491661363.01
I0
tp4430
a(F1491661485.3
I0
tp4431
a(F1491661488.05
I0
tp4432
a(F1491661490.03
I0
tp4433
a(F1491661510.35
I0
tp4434
a(F1491661713.8
I2
tp4435
a(F1491661727.36
I0
tp4436
a(F1491661730.6
I2
tp4437
a(F1491661731.69
I0
tp4438
a(F1491661746.71
I0
tp4439
a(F1491661753.44
I0
tp4440
a(F1491661770.39
I0
tp4441
a(F1491661773.38
I0
tp4442
a(F1491661814.99
I2
tp4443
a(F1491661841.61
I0
tp4444
a(F1491661866.42
I0
tp4445
a(F1491661866.42
I0
tp4446
a(F1491661867.11
I0
tp4447
a(F1491661883.37
I2
tp4448
a(F1491661902.6
I0
tp4449
a(F1491661902.8
I0
tp4450
a(F1491661905.53
I0
tp4451
a(F1491661905.53
I0
tp4452
a(F1491661905.57
I0
tp4453
a(F1491661905.83
I0
tp4454
a(F1491661918.91
I0
tp4455
a(F1491661943.15
I0
tp4456
a(F1491661949.03
I0
tp4457
a(F1491661969.11
I0
tp4458
a(F1491661977.43
I2
tp4459
a(F1491661996.22
I0
tp4460
a(F1491661998.62
I0
tp4461
a(F1491662003.79
I0
tp4462
a(F1491662036.28
I0
tp4463
a(F1491662060.61
I2
tp4464
a(F1491662061.67
I0
tp4465
a(F1491662063.25
I0
tp4466
a(F1491662068.23
I2
tp4467
a(F1491662087.7
I0
tp4468
a(F1491662106.99
I0
tp4469
a(F1491662111.14
I2
tp4470
a(F1491662111.57
I0
tp4471
a(F1491662113.18
I0
tp4472
a(F1491662113.31
I0
tp4473
a(F1491662113.8
I0
tp4474
a(F1491662143.87
I2
tp4475
a(F1491662170.87
I0
tp4476
a(F1491662178.79
I0
tp4477
a(F1491662230.36
I0
tp4478
a(F1491662231.15
I0
tp4479
a(F1491662233.34
I0
tp4480
a(F1491662247.67
I0
tp4481
a(F1491662271.2
I0
tp4482
a(F1491662271.29
I0
tp4483
a(F1491662282.89
I0
tp4484
a(F1491662286.97
I0
tp4485
a(F1491662312.66
I0
tp4486
a(F1491662314.45
I2
tp4487
a(F1491662316.97
I0
tp4488
a(F1491662322.02
I0
tp4489
a(F1491662322.08
I0
tp4490
a(F1491662332.72
I0
tp4491
a(F1491662332.91
I0
tp4492
a(F1491662337.46
I0
tp4493
a(F1491662337.93
I0
tp4494
a(F1491662340.23
I0
tp4495
a(F1491662340.67
I0
tp4496
a(F1491662340.75
I0
tp4497
a(F1491662342.94
I0
tp4498
a(F1491662346.98
I0
tp4499
a(F1491662350.8
I0
tp4500
a(F1491662352.6
I2
tp4501
a(F1491662352.95
I0
tp4502
a(F1491662357.18
I0
tp4503
a(F1491662361.11
I0
tp4504
a(F1491662365.52
I0
tp4505
a(F1491662374.7
I2
tp4506
a(F1491662399.99
I0
tp4507
a(F1491662406.07
I0
tp4508
a(F1491662411.01
I0
tp4509
a(F1491662448.8
I0
tp4510
a(F1491662458.45
I0
tp4511
a(F1491662459.91
I2
tp4512
a(F1491662470.36
I0
tp4513
a(F1491662470.42
I0
tp4514
a(F1491662470.48
I0
tp4515
a(F1491662473.29
I0
tp4516
a(F1491662474.47
I0
tp4517
a(F1491662475.6
I0
tp4518
a(F1491662477.99
I0
tp4519
a(F1491662478.25
I0
tp4520
a(F1491662478.86
I0
tp4521
a(F1491662496.96
I0
tp4522
a(F1491662501.07
I2
tp4523
a(F1491662509.02
I0
tp4524
a(F1491662554.35
I0
tp4525
a(F1491662569.23
I0
tp4526
a(F1491662569.41
I0
tp4527
a(F1491662570.28
I0
tp4528
a(F1491662570.61
I0
tp4529
a(F1491662570.84
I0
tp4530
a(F1491662571.12
I0
tp4531
a(F1491662571.82
I2
tp4532
a(F1491662582.13
I0
tp4533
a(F1491662586.96
I0
tp4534
a(F1491662589.49
I0
tp4535
a(F1491662593.41
I0
tp4536
a(F1491662595.28
I0
tp4537
a(F1491662597.2
I0
tp4538
a(F1491662597.79
I0
tp4539
a(F1491662599.22
I2
tp4540
a(F1491662601.76
I0
tp4541
a(F1491662601.95
I2
tp4542
a(F1491662602.43
I0
tp4543
a(F1491662612.82
I2
tp4544
a(F1491662617.0
I0
tp4545
a(F1491662632.47
I0
tp4546
a(F1491662637.71
I0
tp4547
a(F1491662647.5
I0
tp4548
a(F1491662676.96
I0
tp4549
a(F1491662677.43
I0
tp4550
a(F1491662679.98
I2
tp4551
a(F1491662700.34
I0
tp4552
a(F1491662706.96
I0
tp4553
a(F1491662712.49
I0
tp4554
a(F1491662725.46
I0
tp4555
a(F1491662746.98
I0
tp4556
a(F1491662829.7
I0
tp4557
a(F1491662830.32
I0
tp4558
a(F1491662830.41
I0
tp4559
a(F1491662833.34
I0
tp4560
a(F1491662836.92
I0
tp4561
a(F1491662893.5
I2
tp4562
a(F1491662930.29
I0
tp4563
a(F1491662930.43
I0
tp4564
a(F1491662931.26
I0
tp4565
a(F1491662931.26
I2
tp4566
a(F1491662936.19
I0
tp4567
a(F1491662939.98
I2
tp4568
a(F1491662963.57
I0
tp4569
a(F1491662973.24
I2
tp4570
a(F1491663036.12
I0
tp4571
a(F1491663050.04
I0
tp4572
a(F1491663050.14
I0
tp4573
a(F1491663056.33
I0
tp4574
a(F1491663070.77
I0
tp4575
a(F1491663073.3
I0
tp4576
a(F1491663103.1
I0
tp4577
a(F1491663111.44
I0
tp4578
a(F1491663154.88
I0
tp4579
a(F1491663164.65
I0
tp4580
a(F1491663170.67
I0
tp4581
a(F1491663170.77
I0
tp4582
a(F1491663177.53
I2
tp4583
a(F1491663193.45
I0
tp4584
a(F1491663197.41
I0
tp4585
a(F1491663271.06
I0
tp4586
a(F1491663330.81
I0
tp4587
a(F1491663336.65
I0
tp4588
a(F1491663347.61
I0
tp4589
a(F1491663387.41
I0
tp4590
a(F1491663390.81
I0
tp4591
a(F1491663510.81
I0
tp4592
a(F1491663534.3
I0
tp4593
a(F1491663547.37
I0
tp4594
a(F1491663550.46
I0
tp4595
a(F1491663570.81
I0
tp4596
a(F1491663570.82
I0
tp4597
a(F1491663573.23
I0
tp4598
a(F1491663612.48
I0
tp4599
a(F1491663623.23
I0
tp4600
a(F1491663641.27
I0
tp4601
a(F1491663664.39
I0
tp4602
a(F1491663666.0
I2
tp4603
a(F1491663698.22
I2
tp4604
a(F1491663703.58
I0
tp4605
a(F1491663703.58
I2
tp4606
a(F1491663780.8
I0
tp4607
a(F1491663807.7
I0
tp4608
a(F1491663861.62
I2
tp4609
a(F1491663864.4
I0
tp4610
a(F1491663870.8
I0
tp4611
a(F1491663905.89
I0
tp4612
a(F1491663925.97
I0
tp4613
a(F1491663946.05
I0
tp4614
a(F1491664007.13
I2
tp4615
a(F1491664020.79
I0
tp4616
a(F1491664030.36
I0
tp4617
a(F1491664033.33
I0
tp4618
a(F1491664045.4
I2
tp4619
a(F1491664075.53
I0
tp4620
a(F1491664081.1
I0
tp4621
a(F1491664150.33
I0
tp4622
a(F1491664171.56
I0
tp4623
a(F1491664185.64
I0
tp4624
a(F1491664191.83
I0
tp4625
a(F1491664218.13
I0
tp4626
a(F1491664223.52
I2
tp4627
a(F1491664224.34
I0
tp4628
a(F1491664350.2
I0
tp4629
a(F1491664370.18
I2
tp4630
a(F1491664377.29
I0
tp4631
a(F1491664393.24
I0
tp4632
a(F1491664394.52
I2
tp4633
a(F1491664399.22
I2
tp4634
a(F1491664515.3
I0
tp4635
a(F1491664549.75
I0
tp4636
a(F1491664557.95
I0
tp4637
a(F1491664601.67
I0
tp4638
a(F1491664606.69
I0
tp4639
a(F1491664606.69
I0
tp4640
a(F1491664628.24
I0
tp4641
a(F1491664633.32
I0
tp4642
a(F1491664633.34
I0
tp4643
a(F1491664685.29
I0
tp4644
a(F1491664776.49
I0
tp4645
a(F1491664777.18
I2
tp4646
a(F1491664784.24
I0
tp4647
a(F1491664796.56
I0
tp4648
a(F1491664829.21
I0
tp4649
a(F1491664873.24
I0
tp4650
a(F1491664875.05
I0
tp4651
a(F1491664914.29
I0
tp4652
a(F1491664931.3
I2
tp4653
a(F1491664993.41
I0
tp4654
a(F1491665073.14
I0
tp4655
a(F1491665073.14
I0
tp4656
a(F1491665095.97
I2
tp4657
a(F1491665100.97
I2
tp4658
a(F1491665110.33
I0
tp4659
a(F1491665117.33
I0
tp4660
a(F1491665174.54
I0
tp4661
a(F1491665187.57
I0
tp4662
a(F1491665188.99
I0
tp4663
a(F1491665199.3
I0
tp4664
a(F1491665234.95
I2
tp4665
a(F1491665244.15
I2
tp4666
a(F1491665259.34
I0
tp4667
a(F1491665263.18
I0
tp4668
a(F1491665396.08
I0
tp4669
a(F1491665416.15
I0
tp4670
a(F1491665470.1
I0
tp4671
a(F1491665486.99
I0
tp4672
a(F1491665531.7
I0
tp4673
a(F1491665535.04
I2
tp4674
a(F1491665539.03
I0
tp4675
a(F1491665577.49
I2
tp4676
a(F1491665604.18
I0
tp4677
a(F1491665619.58
I2
tp4678
a(F1491665643.3
I0
tp4679
a(F1491665662.6
I2
tp4680
a(F1491665757.89
I0
tp4681
a(F1491665773.01
I0
tp4682
a(F1491665773.34
I0
tp4683
a(F1491665802.61
I0
tp4684
a(F1491665802.73
I0
tp4685
a(F1491665809.69
I0
tp4686
a(F1491665826.24
I0
tp4687
a(F1491665834.93
I2
tp4688
a(F1491665851.6
I0
tp4689
a(F1491665862.27
I0
tp4690
a(F1491665862.72
I0
tp4691
a(F1491665862.79
I0
tp4692
a(F1491665862.96
I0
tp4693
a(F1491665936.01
I0
tp4694
a(F1491665937.32
I0
tp4695
a(F1491665939.37
I2
tp4696
a(F1491665939.83
I2
tp4697
a(F1491665949.33
I0
tp4698
a(F1491665953.21
I0
tp4699
a(F1491665954.26
I2
tp4700
a(F1491665961.16
I0
tp4701
a(F1491665962.0
I0
tp4702
a(F1491665962.53
I2
tp4703
a(F1491665968.45
I2
tp4704
a(F1491665982.99
I0
tp4705
a(F1491665990.24
I0
tp4706
a(F1491666013.01
I0
tp4707
a(F1491666083.99
I2
tp4708
a(F1491666098.26
I2
tp4709
a(F1491666105.19
I0
tp4710
a(F1491666134.96
I2
tp4711
a(F1491666152.35
I2
tp4712
a(F1491666182.84
I0
tp4713
a(F1491666193.01
I0
tp4714
a(F1491666199.2
I2
tp4715
a(F1491666247.14
I2
tp4716
a(F1491666255.06
I2
tp4717
a(F1491666260.72
I2
tp4718
a(F1491666310.2
I0
tp4719
a(F1491666429.2
I0
tp4720
a(F1491666429.21
I0
tp4721
a(F1491666434.93
I2
tp4722
a(F1491666464.86
I0
tp4723
a(F1491666609.17
I2
tp4724
a(F1491666673.04
I0
tp4725
a(F1491666734.93
I2
tp4726
a(F1491666777.56
I2
tp4727
a(F1491666910.03
I0
tp4728
a(F1491667034.94
I2
tp4729
a(F1491667153.07
I0
tp4730
a(F1491667159.74
I0
tp4731
a(F1491667334.94
I2
tp4732
a(F1491667393.0
I0
tp4733
a(F1491667463.6
I2
tp4734
a(F1491667601.56
I2
tp4735
a(F1491667630.0
I0
tp4736
a(F1491667748.79
I2
tp4737
a(F1491667934.94
I2
tp4738
a(F1491667977.27
I0
tp4739
a(F1491667999.21
I2
tp4740
a(F1491668229.96
I0
tp4741
a(F1491668508.26
I0
tp4742
a(F1491668534.99
I2
tp4743
a(F1491668589.91
I0
tp4744
a(F1491668705.3
I2
tp4745
a(F1491668834.95
I2
tp4746
a(F1491668949.91
I0
tp4747
a(F1491669134.95
I2
tp4748
a(F1491669177.44
I2
tp4749
a(F1491669264.67
I2
tp4750
a(F1491669309.88
I0
tp4751
a(F1491669414.33
I0
tp4752
a(F1491669414.39
I0
tp4753
a(F1491669414.48
I0
tp4754
a(F1491669414.52
I0
tp4755
a(F1491669414.52
I0
tp4756
a(F1491669414.76
I0
tp4757
a(F1491669414.78
I0
tp4758
a(F1491669414.8
I0
tp4759
a(F1491669418.67
I2
tp4760
a(F1491669419.71
I0
tp4761
a(F1491669420.9
I0
tp4762
a(F1491669434.18
I0
tp4763
a(F1491669440.07
I0
tp4764
a(F1491669440.45
I0
tp4765
a(F1491669443.64
I0
tp4766
a(F1491669444.57
I0
tp4767
a(F1491669444.59
I2
tp4768
a(F1491669444.96
I0
tp4769
a(F1491669445.34
I0
tp4770
a(F1491669448.12
I0
tp4771
a(F1491669450.32
I2
tp4772
a(F1491669455.16
I0
tp4773
a(F1491669464.41
I0
tp4774
a(F1491669474.52
I0
tp4775
a(F1491669475.7
I0
tp4776
a(F1491669488.35
I0
tp4777
a(F1491669488.39
I2
tp4778
a(F1491669494.85
I0
tp4779
a(F1491669499.2
I2
tp4780
a(F1491669513.01
I2
tp4781
a(F1491669517.56
I2
tp4782
a(F1491669518.05
I0
tp4783
a(F1491669519.46
I0
tp4784
a(F1491669519.63
I0
tp4785
a(F1491669519.77
I0
tp4786
a(F1491669520.26
I0
tp4787
a(F1491669538.59
I0
tp4788
a(F1491669538.6
I0
tp4789
a(F1491669540.83
I0
tp4790
a(F1491669540.85
I2
tp4791
a(F1491669542.21
I2
tp4792
a(F1491669544.9
I0
tp4793
a(F1491669546.36
I0
tp4794
a(F1491669546.66
I2
tp4795
a(F1491669547.06
I2
tp4796
a(F1491669547.33
I0
tp4797
a(F1491669556.63
I0
tp4798
a(F1491669556.66
I0
tp4799
a(F1491669561.03
I0
tp4800
a(F1491669561.42
I2
tp4801
a(F1491669561.86
I2
tp4802
a(F1491669564.71
I0
tp4803
a(F1491669571.47
I0
tp4804
a(F1491669577.83
I0
tp4805
a(F1491669580.93
I0
tp4806
a(F1491669581.34
I2
tp4807
a(F1491669581.89
I2
tp4808
a(F1491669584.2
I0
tp4809
a(F1491669584.39
I0
tp4810
a(F1491669586.78
I0
tp4811
a(F1491669587.23
I0
tp4812
a(F1491669598.95
I2
tp4813
a(F1491669598.95
I2
tp4814
a(F1491669604.28
I0
tp4815
a(F1491669604.96
I0
tp4816
a(F1491669605.34
I0
tp4817
a(F1491669607.68
I0
tp4818
a(F1491669616.22
I2
tp4819
a(F1491669617.36
I0
tp4820
a(F1491669617.54
I0
tp4821
a(F1491669617.54
I0
tp4822
a(F1491669617.63
I2
tp4823
a(F1491669617.64
I2
tp4824
a(F1491669617.65
I2
tp4825
a(F1491669617.66
I2
tp4826
a(F1491669617.67
I2
tp4827
a(F1491669617.68
I2
tp4828
a(F1491669620.35
I2
tp4829
a(F1491669620.37
I2
tp4830
a(F1491669620.63
I0
tp4831
a(F1491669620.75
I2
tp4832
a(F1491669622.46
I2
tp4833
a(F1491669622.48
I2
tp4834
a(F1491669626.11
I0
tp4835
a(F1491669626.44
I0
tp4836
a(F1491669631.4
I0
tp4837
a(F1491669631.66
I0
tp4838
a(F1491669631.71
I0
tp4839
a(F1491669641.2
I0
tp4840
a(F1491669645.93
I2
tp4841
a(F1491669646.0
I0
tp4842
a(F1491669652.16
I0
tp4843
a(F1491669658.41
I0
tp4844
a(F1491669662.72
I0
tp4845
a(F1491669668.61
I2
tp4846
a(F1491669669.86
I0
tp4847
a(F1491669672.53
I2
tp4848
a(F1491669674.28
I0
tp4849
a(F1491669678.39
I0
tp4850
a(F1491669681.25
I0
tp4851
a(F1491669691.38
I0
tp4852
a(F1491669698.73
I0
tp4853
a(F1491669709.77
I2
tp4854
a(F1491669711.87
I0
tp4855
a(F1491669711.93
I0
tp4856
a(F1491669717.24
I0
tp4857
a(F1491669717.25
I2
tp4858
a(F1491669718.76
I0
tp4859
a(F1491669720.74
I0
tp4860
a(F1491669722.55
I0
tp4861
a(F1491669722.9
I2
tp4862
a(F1491669725.02
I0
tp4863
a(F1491669725.85
I0
tp4864
a(F1491669725.86
I0
tp4865
a(F1491669725.86
I0
tp4866
a(F1491669725.86
I2
tp4867
a(F1491669725.89
I0
tp4868
a(F1491669735.12
I0
tp4869
a(F1491669735.65
I0
tp4870
a(F1491669735.85
I0
tp4871
a(F1491669735.87
I0
tp4872
a(F1491669735.9
I0
tp4873
a(F1491669735.9
I0
tp4874
a(F1491669735.91
I0
tp4875
a(F1491669735.94
I0
tp4876
a(F1491669735.95
I0
tp4877
a(F1491669737.97
I0
tp4878
a(F1491669738.07
I0
tp4879
a(F1491669738.47
I0
tp4880
a(F1491669740.03
I0
tp4881
a(F1491669740.69
I0
tp4882
a(F1491669741.34
I2
tp4883
a(F1491669741.35
I2
tp4884
a(F1491669741.37
I0
tp4885
a(F1491669741.73
I0
tp4886
a(F1491669747.15
I0
tp4887
a(F1491669750.2
I0
tp4888
a(F1491669750.28
I0
tp4889
a(F1491669750.98
I0
tp4890
a(F1491669752.94
I0
tp4891
a(F1491669757.08
I0
tp4892
a(F1491669757.15
I2
tp4893
a(F1491669757.73
I0
tp4894
a(F1491669757.73
I0
tp4895
a(F1491669758.68
I0
tp4896
a(F1491669760.98
I0
tp4897
a(F1491669761.36
I0
tp4898
a(F1491669761.9
I0
tp4899
a(F1491669765.07
I2
tp4900
a(F1491669770.36
I0
tp4901
a(F1491669770.8
I0
tp4902
a(F1491669771.64
I0
tp4903
a(F1491669772.62
I2
tp4904
a(F1491669773.33
I0
tp4905
a(F1491669773.49
I0
tp4906
a(F1491669774.21
I2
tp4907
a(F1491669778.25
I0
tp4908
a(F1491669778.66
I0
tp4909
a(F1491669782.07
I0
tp4910
a(F1491669782.19
I0
tp4911
a(F1491669782.19
I0
tp4912
a(F1491669782.2
I0
tp4913
a(F1491669782.26
I0
tp4914
a(F1491669786.54
I0
tp4915
a(F1491669786.56
I0
tp4916
a(F1491669787.68
I0
tp4917
a(F1491669788.94
I0
tp4918
a(F1491669788.94
I2
tp4919
a(F1491669788.94
I0
tp4920
a(F1491669788.94
I2
tp4921
a(F1491669789.98
I0
tp4922
a(F1491669791.65
I0
tp4923
a(F1491669791.91
I0
tp4924
a(F1491669791.93
I2
tp4925
a(F1491669791.95
I2
tp4926
a(F1491669792.22
I2
tp4927
a(F1491669792.46
I0
tp4928
a(F1491669792.46
I0
tp4929
a(F1491669792.48
I0
tp4930
a(F1491669792.48
I0
tp4931
a(F1491669792.48
I0
tp4932
a(F1491669792.6
I2
tp4933
a(F1491669792.69
I2
tp4934
a(F1491669792.69
I0
tp4935
a(F1491669792.77
I2
tp4936
a(F1491669793.6
I0
tp4937
a(F1491669794.46
I0
tp4938
a(F1491669795.82
I2
tp4939
a(F1491669796.53
I0
tp4940
a(F1491669796.88
I0
tp4941
a(F1491669797.19
I2
tp4942
a(F1491669797.19
I2
tp4943
a(F1491669797.19
I0
tp4944
a(F1491669797.19
I2
tp4945
a(F1491669797.2
I2
tp4946
a(F1491669797.2
I0
tp4947
a(F1491669797.3
I0
tp4948
a(F1491669797.33
I0
tp4949
a(F1491669797.36
I0
tp4950
a(F1491669797.39
I0
tp4951
a(F1491669797.4
I0
tp4952
a(F1491669797.41
I0
tp4953
a(F1491669797.41
I0
tp4954
a(F1491669797.47
I0
tp4955
a(F1491669797.47
I0
tp4956
a(F1491669797.47
I0
tp4957
a(F1491669797.47
I0
tp4958
a(F1491669797.56
I0
tp4959
a(F1491669797.7
I0
tp4960
a(F1491669797.79
I0
tp4961
a(F1491669797.79
I0
tp4962
a(F1491669797.83
I0
tp4963
a(F1491669801.45
I0
tp4964
a(F1491669802.31
I0
tp4965
a(F1491669802.33
I0
tp4966
a(F1491669802.33
I0
tp4967
a(F1491669802.72
I0
tp4968
a(F1491669804.98
I0
tp4969
a(F1491669805.31
I0
tp4970
a(F1491669805.85
I0
tp4971
a(F1491669806.28
I0
tp4972
a(F1491669807.13
I0
tp4973
a(F1491669807.18
I0
tp4974
a(F1491669807.47
I0
tp4975
a(F1491669807.48
I0
tp4976
a(F1491669807.52
I0
tp4977
a(F1491669807.54
I0
tp4978
a(F1491669808.59
I2
tp4979
a(F1491669810.25
I0
tp4980
a(F1491669810.46
I0
tp4981
a(F1491669813.06
I0
tp4982
a(F1491669813.28
I2
tp4983
a(F1491669815.2
I0
tp4984
a(F1491669818.79
I0
tp4985
a(F1491669819.82
I0
tp4986
a(F1491669819.88
I2
tp4987
a(F1491669823.71
I0
tp4988
a(F1491669825.2
I0
tp4989
a(F1491669828.2
I0
tp4990
a(F1491669828.41
I0
tp4991
a(F1491669836.35
I2
tp4992
a(F1491669836.4
I0
tp4993
a(F1491669838.64
I0
tp4994
a(F1491669843.14
I0
tp4995
a(F1491669851.28
I2
tp4996
a(F1491669855.26
I0
tp4997
a(F1491669855.48
I0
tp4998
a(F1491669855.65
I0
tp4999
a(F1491669858.25
I0
tp5000
a(F1491669858.7
I0
tp5001
a(F1491669864.65
I0
tp5002
a(F1491669868.78
I0
tp5003
a(F1491669873.22
I0
tp5004
a(F1491669878.79
I0
tp5005
a(F1491669884.15
I2
tp5006
a(F1491669884.2
I2
tp5007
a(F1491669884.21
I2
tp5008
a(F1491669884.22
I2
tp5009
a(F1491669884.23
I2
tp5010
a(F1491669884.25
I2
tp5011
a(F1491669884.28
I2
tp5012
a(F1491669884.33
I2
tp5013
a(F1491669884.35
I2
tp5014
a(F1491669884.35
I2
tp5015
a(F1491669884.56
I2
tp5016
a(F1491669888.32
I0
tp5017
a(F1491669893.05
I0
tp5018
a(F1491669895.96
I0
tp5019
a(F1491669898.96
I0
tp5020
a(F1491669898.97
I0
tp5021
a(F1491669899.24
I0
tp5022
a(F1491669907.32
I2
tp5023
a(F1491669907.36
I0
tp5024
a(F1491669918.84
I0
tp5025
a(F1491669933.31
I2
tp5026
a(F1491669933.51
I0
tp5027
a(F1491669938.86
I0
tp5028
a(F1491669945.06
I0
tp5029
a(F1491669956.53
I2
tp5030
a(F1491669958.78
I0
tp5031
a(F1491669979.73
I0
tp5032
a(F1491669979.82
I2
tp5033
a(F1491669982.98
I0
tp5034
a(F1491669984.57
I0
tp5035
a(F1491669992.55
I0
tp5036
a(F1491670002.73
I2
tp5037
a(F1491670003.04
I0
tp5038
a(F1491670016.83
I0
tp5039
a(F1491670017.09
I0
tp5040
a(F1491670022.17
I0
tp5041
a(F1491670023.17
I0
tp5042
a(F1491670026.52
I2
tp5043
a(F1491670032.93
I0
tp5044
a(F1491670045.28
I0
tp5045
a(F1491670045.52
I0
tp5046
a(F1491670045.52
I0
tp5047
a(F1491670048.57
I0
tp5048
a(F1491670049.29
I0
tp5049
a(F1491670049.42
I2
tp5050
a(F1491670049.86
I0
tp5051
a(F1491670050.3
I2
tp5052
a(F1491670052.57
I0
tp5053
a(F1491670055.03
I2
tp5054
a(F1491670055.04
I2
tp5055
a(F1491670055.05
I2
tp5056
a(F1491670055.06
I2
tp5057
a(F1491670055.07
I2
tp5058
a(F1491670055.08
I2
tp5059
a(F1491670055.08
I2
tp5060
a(F1491670055.09
I2
tp5061
a(F1491670055.11
I2
tp5062
a(F1491670055.11
I2
tp5063
a(F1491670055.12
I2
tp5064
a(F1491670055.12
I2
tp5065
a(F1491670055.13
I2
tp5066
a(F1491670055.13
I2
tp5067
a(F1491670055.14
I2
tp5068
a(F1491670055.17
I2
tp5069
a(F1491670055.18
I2
tp5070
a(F1491670055.19
I2
tp5071
a(F1491670055.25
I2
tp5072
a(F1491670056.56
I0
tp5073
a(F1491670056.58
I0
tp5074
a(F1491670059.19
I2
tp5075
a(F1491670061.87
I0
tp5076
a(F1491670062.5
I0
tp5077
a(F1491670068.16
I2
tp5078
a(F1491670068.17
I2
tp5079
a(F1491670074.04
I2
tp5080
a(F1491670083.18
I0
tp5081
a(F1491670083.21
I0
tp5082
a(F1491670095.87
I0
tp5083
a(F1491670096.87
I0
tp5084
a(F1491670097.32
I2
tp5085
a(F1491670097.32
I2
tp5086
a(F1491670097.97
I2
tp5087
a(F1491670098.15
I0
tp5088
a(F1491670098.19
I2
tp5089
a(F1491670100.77
I0
tp5090
a(F1491670101.03
I0
tp5091
a(F1491670105.1
I2
tp5092
a(F1491670106.33
I0
tp5093
a(F1491670106.42
I0
tp5094
a(F1491670114.54
I0
tp5095
a(F1491670116.56
I2
tp5096
a(F1491670116.9
I0
tp5097
a(F1491670118.77
I2
tp5098
a(F1491670118.78
I2
tp5099
a(F1491670118.89
I2
tp5100
a(F1491670124.0
I2
tp5101
a(F1491670124.0
I2
tp5102
a(F1491670124.01
I2
tp5103
a(F1491670124.02
I2
tp5104
a(F1491670124.02
I2
tp5105
a(F1491670124.02
I2
tp5106
a(F1491670128.27
I0
tp5107
a(F1491670137.32
I0
tp5108
a(F1491670140.47
I0
tp5109
a(F1491670152.98
I0
tp5110
a(F1491670198.2
I2
tp5111
a(F1491670198.2
I2
tp5112
a(F1491670198.24
I2
tp5113
a(F1491670198.31
I2
tp5114
a(F1491670198.69
I2
tp5115
a(F1491670199.04
I0
tp5116
a(F1491670199.29
I2
tp5117
a(F1491670200.93
I0
tp5118
a(F1491670201.95
I0
tp5119
a(F1491670201.96
I0
tp5120
a(F1491670201.97
I2
tp5121
a(F1491670203.05
I0
tp5122
a(F1491670203.13
I2
tp5123
a(F1491670203.16
I2
tp5124
a(F1491670204.08
I0
tp5125
a(F1491670269.84
I0
tp5126
a(F1491670291.12
I2
tp5127
a(F1491670312.28
I0
tp5128
a(F1491670315.2
I0
tp5129
a(F1491670321.58
I2
tp5130
a(F1491670321.74
I0
tp5131
a(F1491670321.76
I0
tp5132
a(F1491670323.55
I0
tp5133
a(F1491670326.08
I0
tp5134
a(F1491670327.21
I0
tp5135
a(F1491670327.23
I0
tp5136
a(F1491670327.24
I0
tp5137
a(F1491670328.04
I0
tp5138
a(F1491670328.2
I0
tp5139
a(F1491670358.28
I0
tp5140
a(F1491670378.39
I0
tp5141
a(F1491670382.09
I0
tp5142
a(F1491670409.45
I0
tp5143
a(F1491670422.8
I0
tp5144
a(F1491670438.62
I0
tp5145
a(F1491670452.2
I0
tp5146
a(F1491670472.62
I2
tp5147
a(F1491670475.05
I0
tp5148
a(F1491670501.65
I0
tp5149
a(F1491670537.6
I2
tp5150
a(F1491670560.29
I0
tp5151
a(F1491670560.54
I0
tp5152
a(F1491670565.64
I0
tp5153
a(F1491670587.21
I0
tp5154
a(F1491670610.75
I0
tp5155
a(F1491670614.04
I0
tp5156
a(F1491670614.1
I0
tp5157
a(F1491670614.17
I0
tp5158
a(F1491670614.18
I0
tp5159
a(F1491670623.0
I0
tp5160
a(F1491670623.0
I0
tp5161
a(F1491670623.86
I0
tp5162
a(F1491670627.19
I0
tp5163
a(F1491670632.86
I0
tp5164
a(F1491670659.54
I0
tp5165
a(F1491670668.19
I2
tp5166
a(F1491670695.63
I0
tp5167
a(F1491670701.68
I0
tp5168
a(F1491670716.15
I0
tp5169
a(F1491670718.68
I0
tp5170
a(F1491670719.73
I0
tp5171
a(F1491670722.21
I0
tp5172
a(F1491670723.62
I2
tp5173
a(F1491670747.61
I0
tp5174
a(F1491670749.52
I0
tp5175
a(F1491670751.07
I2
tp5176
a(F1491670751.88
I2
tp5177
a(F1491670756.42
I0
tp5178
a(F1491670758.68
I0
tp5179
a(F1491670758.75
I0
tp5180
a(F1491670759.63
I0
tp5181
a(F1491670766.96
I2
tp5182
a(F1491670767.89
I0
tp5183
a(F1491670774.61
I0
tp5184
a(F1491670800.64
I2
tp5185
a(F1491670805.69
I0
tp5186
a(F1491670821.69
I0
tp5187
a(F1491670823.66
I0
tp5188
a(F1491670823.74
I0
tp5189
a(F1491670834.5
I2
tp5190
a(F1491670841.5
I0
tp5191
a(F1491670877.67
I2
tp5192
a(F1491670890.62
I0
tp5193
a(F1491670912.6
I2
tp5194
a(F1491670913.02
I0
tp5195
a(F1491670927.75
I0
tp5196
a(F1491670950.71
I0
tp5197
a(F1491670953.71
I0
tp5198
a(F1491670966.45
I0
tp5199
a(F1491670978.12
I2
tp5200
a(F1491671004.7
I0
tp5201
a(F1491671029.17
I2
tp5202
a(F1491671029.41
I2
tp5203
a(F1491671065.6
I2
tp5204
aaa(lp5205
S'172.16.68.31'
p5206
a(lp5207
(F1491656166.09
I2
tp5208
a(F1491656188.12
I2
tp5209
a(F1491656251.55
I0
tp5210
a(F1491656277.11
I0
tp5211
a(F1491656299.33
I2
tp5212
a(F1491656327.46
I2
tp5213
a(F1491656389.36
I2
tp5214
a(F1491656393.78
I2
tp5215
a(F1491656410.97
I2
tp5216
a(F1491656432.08
I2
tp5217
a(F1491656473.29
I0
tp5218
a(F1491656516.57
I0
tp5219
a(F1491656579.96
I2
tp5220
a(F1491656601.28
I2
tp5221
a(F1491656981.58
I0
tp5222
a(F1491657013.74
I2
tp5223
a(F1491657047.37
I2
tp5224
a(F1491657147.06
I2
tp5225
a(F1491657179.41
I2
tp5226
a(F1491657294.42
I2
tp5227
a(F1491657332.69
I0
tp5228
a(F1491657417.91
I2
tp5229
a(F1491657476.96
I2
tp5230
a(F1491657552.85
I2
tp5231
a(F1491657604.31
I2
tp5232
a(F1491657680.1
I2
tp5233
a(F1491657710.8
I0
tp5234
a(F1491657731.55
I2
tp5235
a(F1491657773.58
I2
tp5236
a(F1491657807.44
I2
tp5237
a(F1491657986.01
I2
tp5238
a(F1491658028.32
I0
tp5239
a(F1491658061.97
I2
tp5240
a(F1491658091.9
I2
tp5241
a(F1491658113.26
I2
tp5242
a(F1491658189.35
I2
tp5243
a(F1491658227.03
I2
tp5244
a(F1491658284.3
I2
tp5245
a(F1491658316.51
I2
tp5246
a(F1491658363.72
I2
tp5247
a(F1491658412.48
I2
tp5248
a(F1491658438.04
I0
tp5249
a(F1491658489.37
I2
tp5250
a(F1491658570.97
I2
tp5251
a(F1491658643.38
I2
tp5252
a(F1491658676.35
I2
tp5253
a(F1491658729.3
I2
tp5254
a(F1491658764.44
I2
tp5255
a(F1491658787.33
I2
tp5256
a(F1491658811.08
I0
tp5257
a(F1491658839.17
I2
tp5258
a(F1491658869.85
I0
tp5259
a(F1491658934.71
I2
tp5260
a(F1491658977.29
I2
tp5261
a(F1491659041.05
I0
tp5262
a(F1491659086.4
I2
tp5263
a(F1491659111.38
I2
tp5264
a(F1491659144.87
I2
tp5265
a(F1491659200.27
I2
tp5266
a(F1491659200.78
I2
tp5267
a(F1491659238.62
I0
tp5268
a(F1491659278.35
I2
tp5269
a(F1491659355.26
I2
tp5270
a(F1491659406.21
I2
tp5271
a(F1491659478.53
I2
tp5272
a(F1491659576.79
I2
tp5273
a(F1491659609.82
I2
tp5274
a(F1491659737.31
I2
tp5275
a(F1491659768.34
I0
tp5276
a(F1491659810.27
I0
tp5277
a(F1491659864.54
I2
tp5278
a(F1491659937.87
I2
tp5279
a(F1491659991.77
I2
tp5280
a(F1491660015.79
I0
tp5281
a(F1491660084.31
I2
tp5282
a(F1491660119.06
I2
tp5283
a(F1491660150.92
I2
tp5284
a(F1491660181.3
I2
tp5285
a(F1491660211.64
I2
tp5286
a(F1491660246.62
I2
tp5287
a(F1491660359.26
I2
tp5288
a(F1491660385.31
I0
tp5289
a(F1491660402.12
I0
tp5290
a(F1491660482.31
I2
tp5291
a(F1491660508.49
I2
tp5292
a(F1491660553.31
I2
tp5293
a(F1491660613.72
I0
tp5294
a(F1491660706.79
I2
tp5295
a(F1491660740.95
I2
tp5296
a(F1491660783.26
I2
tp5297
a(F1491660807.48
I2
tp5298
a(F1491660868.19
I2
tp5299
a(F1491660934.74
I2
tp5300
a(F1491661051.31
I2
tp5301
a(F1491661074.01
I2
tp5302
a(F1491661098.95
I0
tp5303
a(F1491661152.83
I2
tp5304
a(F1491661201.32
I2
tp5305
a(F1491661264.6
I0
tp5306
a(F1491661302.02
I2
tp5307
a(F1491661356.32
I2
tp5308
a(F1491661378.09
I0
tp5309
a(F1491661455.71
I2
tp5310
a(F1491661490.61
I0
tp5311
a(F1491661519.06
I0
tp5312
a(F1491661564.99
I2
tp5313
a(F1491661597.72
I2
tp5314
a(F1491661632.09
I2
tp5315
a(F1491661686.34
I2
tp5316
a(F1491661777.0
I2
tp5317
a(F1491661839.93
I2
tp5318
a(F1491661885.44
I2
tp5319
a(F1491661987.3
I2
tp5320
a(F1491662012.69
I2
tp5321
a(F1491662084.8
I2
tp5322
a(F1491662127.53
I2
tp5323
a(F1491662142.4
I0
tp5324
a(F1491662158.81
I2
tp5325
a(F1491662254.97
I0
tp5326
a(F1491662288.3
I2
tp5327
a(F1491662332.83
I2
tp5328
a(F1491662382.18
I2
tp5329
a(F1491662410.94
I0
tp5330
a(F1491662540.52
I0
tp5331
a(F1491662566.49
I2
tp5332
a(F1491662589.26
I2
tp5333
a(F1491662636.0
I0
tp5334
a(F1491662667.76
I0
tp5335
a(F1491662759.14
I2
tp5336
a(F1491662794.97
I2
tp5337
a(F1491662890.27
I2
tp5338
a(F1491662994.15
I0
tp5339
a(F1491663030.42
I0
tp5340
a(F1491663105.03
I2
tp5341
a(F1491663176.69
I2
tp5342
a(F1491663360.83
I0
tp5343
a(F1491663472.76
I2
tp5344
a(F1491663569.66
I0
tp5345
a(F1491663611.17
I2
tp5346
a(F1491663686.25
I2
tp5347
a(F1491663742.69
I2
tp5348
a(F1491663792.26
I2
tp5349
a(F1491663813.51
I2
tp5350
a(F1491663864.7
I2
tp5351
a(F1491664093.26
I2
tp5352
a(F1491664147.84
I0
tp5353
a(F1491664224.0
I2
tp5354
a(F1491664364.5
I0
tp5355
a(F1491664394.33
I2
tp5356
a(F1491664463.83
I2
tp5357
a(F1491664485.04
I0
tp5358
a(F1491664581.23
I2
tp5359
a(F1491664610.46
I2
tp5360
a(F1491664695.27
I2
tp5361
a(F1491664725.48
I2
tp5362
a(F1491664792.04
I0
tp5363
a(F1491664815.78
I0
tp5364
a(F1491664890.95
I0
tp5365
a(F1491664967.47
I2
tp5366
a(F1491664996.28
I2
tp5367
a(F1491665046.5
I2
tp5368
a(F1491665083.4
I2
tp5369
a(F1491665160.07
I2
tp5370
a(F1491665209.89
I2
tp5371
a(F1491665244.62
I2
tp5372
a(F1491665274.62
I0
tp5373
a(F1491665297.32
I2
tp5374
a(F1491665337.76
I2
tp5375
a(F1491665383.65
I0
tp5376
a(F1491665453.88
I2
tp5377
a(F1491665487.3
I2
tp5378
a(F1491665524.57
I2
tp5379
a(F1491665598.27
I2
tp5380
a(F1491665648.68
I0
tp5381
a(F1491665674.78
I2
tp5382
a(F1491665695.31
I2
tp5383
a(F1491665729.57
I2
tp5384
a(F1491665786.91
I0
tp5385
a(F1491665827.61
I0
tp5386
a(F1491665860.86
I2
tp5387
a(F1491665899.41
I2
tp5388
a(F1491665931.43
I2
tp5389
a(F1491665958.94
I2
tp5390
a(F1491666010.94
I0
tp5391
a(F1491666032.23
I2
tp5392
a(F1491666058.76
I2
tp5393
a(F1491666159.49
I2
tp5394
a(F1491666200.35
I2
tp5395
a(F1491666228.2
I2
tp5396
a(F1491666293.73
I2
tp5397
a(F1491666360.81
I0
tp5398
a(F1491666428.88
I0
tp5399
a(F1491666501.34
I2
tp5400
a(F1491666541.27
I0
tp5401
a(F1491666584.22
I0
tp5402
a(F1491666792.35
I2
tp5403
a(F1491666842.26
I0
tp5404
a(F1491667081.94
I0
tp5405
a(F1491667103.26
I2
tp5406
a(F1491667162.18
I0
tp5407
a(F1491667211.24
I2
tp5408
a(F1491667235.42
I2
tp5409
a(F1491667278.48
I2
tp5410
a(F1491667404.26
I2
tp5411
a(F1491667467.01
I2
tp5412
a(F1491667519.86
I2
tp5413
a(F1491667547.82
I2
tp5414
a(F1491667705.26
I2
tp5415
a(F1491667727.65
I0
tp5416
a(F1491667832.85
I2
tp5417
a(F1491667868.35
I2
tp5418
a(F1491667889.43
I0
tp5419
a(F1491668006.26
I2
tp5420
a(F1491668108.36
I2
tp5421
a(F1491668161.4
I2
tp5422
a(F1491668246.94
I2
tp5423
a(F1491668286.24
I0
tp5424
a(F1491668307.26
I2
tp5425
a(F1491668411.16
I2
tp5426
a(F1491668511.55
I2
tp5427
a(F1491668608.27
I2
tp5428
a(F1491668795.94
I2
tp5429
a(F1491668909.26
I2
tp5430
a(F1491669089.25
I2
tp5431
a(F1491669210.26
I2
tp5432
a(F1491669343.92
I0
tp5433
a(F1491669454.99
I0
tp5434
a(F1491669455.0
I0
tp5435
a(F1491669511.27
I2
tp5436
a(F1491669610.95
I0
tp5437
a(F1491669632.86
I2
tp5438
a(F1491669672.7
I2
tp5439
a(F1491669764.96
I2
tp5440
a(F1491669806.65
I0
tp5441
a(F1491669892.32
I0
tp5442
a(F1491669914.32
I2
tp5443
a(F1491669944.91
I0
tp5444
a(F1491669987.03
I2
tp5445
a(F1491670020.96
I2
tp5446
a(F1491670113.27
I2
tp5447
a(F1491670305.69
I0
tp5448
a(F1491670401.43
I2
tp5449
a(F1491670428.82
I2
tp5450
a(F1491670515.26
I2
tp5451
a(F1491670649.85
I2
tp5452
a(F1491670672.18
I0
tp5453
a(F1491670714.26
I2
tp5454
a(F1491670811.22
I2
tp5455
a(F1491670890.25
I2
tp5456
a(F1491671015.26
I2
tp5457
a(F1491671156.13
I2
tp5458
a(F1491671272.43
I0
tp5459
a(F1491671316.35
I2
tp5460
a(F1491671432.88
I2
tp5461
a(F1491671617.32
I2
tp5462
a(F1491671718.37
I2
tp5463
a(F1491671845.59
I2
tp5464
a(F1491671883.43
I2
tp5465
a(F1491671918.26
I2
tp5466
a(F1491671997.5
I2
tp5467
a(F1491672157.65
I0
tp5468
a(F1491672219.27
I2
tp5469
a(F1491672296.04
I2
tp5470
a(F1491672423.27
I2
tp5471
a(F1491672473.86
I2
tp5472
a(F1491672520.26
I2
tp5473
a(F1491672565.42
I2
tp5474
a(F1491672599.65
I0
tp5475
a(F1491672691.25
I2
tp5476
a(F1491672801.49
I0
tp5477
a(F1491672851.03
I2
tp5478
a(F1491672930.66
I0
tp5479
a(F1491673061.63
I0
tp5480
a(F1491673122.28
I2
tp5481
a(F1491673196.08
I0
tp5482
a(F1491673232.85
I2
tp5483
a(F1491673326.89
I0
tp5484
a(F1491673365.16
I2
tp5485
a(F1491673365.81
I2
tp5486
a(F1491673365.82
I2
tp5487
a(F1491673366.07
I2
tp5488
a(F1491673366.08
I2
tp5489
a(F1491673366.12
I2
tp5490
a(F1491673366.37
I2
tp5491
a(F1491673366.42
I2
tp5492
a(F1491673423.3
I2
tp5493
a(F1491673497.31
I2
tp5494
a(F1491673580.46
I0
tp5495
a(F1491673605.97
I2
tp5496
a(F1491673628.07
I0
tp5497
a(F1491673719.08
I2
tp5498
a(F1491673748.26
I2
tp5499
a(F1491673897.36
I0
tp5500
a(F1491660799.3
I2
tp5501
a(F1491660913.38
I0
tp5502
a(F1491661075.59
I0
tp5503
a(F1491661086.14
I2
tp5504
a(F1491661129.19
I0
tp5505
a(F1491661155.76
I0
tp5506
a(F1491661155.87
I2
tp5507
a(F1491661156.93
I0
tp5508
a(F1491661160.49
I0
tp5509
a(F1491661160.54
I0
tp5510
a(F1491661160.91
I0
tp5511
a(F1491661162.23
I0
tp5512
a(F1491661162.25
I0
tp5513
a(F1491661162.3
I0
tp5514
a(F1491661162.3
I0
tp5515
a(F1491661273.76
I0
tp5516
a(F1491661275.09
I2
tp5517
a(F1491661275.1
I0
tp5518
a(F1491661275.29
I0
tp5519
a(F1491661305.86
I0
tp5520
a(F1491661363.0
I0
tp5521
a(F1491661510.34
I0
tp5522
a(F1491661753.43
I0
tp5523
a(F1491661815.0
I2
tp5524
a(F1491661902.81
I0
tp5525
a(F1491661977.44
I2
tp5526
a(F1491662060.61
I2
tp5527
a(F1491662111.15
I2
tp5528
a(F1491662271.21
I0
tp5529
a(F1491662470.36
I0
tp5530
a(F1491662599.22
I2
tp5531
a(F1491662830.25
I0
tp5532
a(F1491662893.5
I2
tp5533
a(F1491663177.53
I2
tp5534
a(F1491663347.61
I0
tp5535
a(F1491663641.28
I0
tp5536
a(F1491663861.61
I2
tp5537
a(F1491664007.13
I2
tp5538
a(F1491664030.36
I0
tp5539
a(F1491664185.64
I0
tp5540
a(F1491664223.52
I2
tp5541
a(F1491664350.2
I0
tp5542
a(F1491664377.29
I0
tp5543
a(F1491664399.22
I2
tp5544
a(F1491664685.29
I0
tp5545
a(F1491664873.24
I0
tp5546
a(F1491664931.3
I2
tp5547
a(F1491665110.33
I0
tp5548
a(F1491665234.95
I2
tp5549
a(F1491665263.18
I0
tp5550
a(F1491665470.1
I0
tp5551
a(F1491665535.05
I2
tp5552
a(F1491665577.49
I2
tp5553
a(F1491665619.58
I2
tp5554
a(F1491665662.6
I2
tp5555
a(F1491665757.89
I0
tp5556
a(F1491665834.93
I2
tp5557
a(F1491665953.21
I0
tp5558
a(F1491666105.19
I0
tp5559
a(F1491666134.96
I2
tp5560
a(F1491666199.21
I2
tp5561
a(F1491666310.21
I0
tp5562
a(F1491666429.2
I0
tp5563
a(F1491666464.86
I0
tp5564
a(F1491666609.17
I2
tp5565
a(F1491666673.04
I0
tp5566
a(F1491666734.94
I2
tp5567
a(F1491666777.56
I2
tp5568
a(F1491666910.03
I0
tp5569
a(F1491667034.94
I2
tp5570
a(F1491667153.07
I0
tp5571
a(F1491667159.74
I0
tp5572
a(F1491667334.94
I2
tp5573
a(F1491667392.99
I0
tp5574
a(F1491667463.6
I2
tp5575
a(F1491667601.56
I2
tp5576
a(F1491667630.0
I0
tp5577
a(F1491667748.79
I2
tp5578
a(F1491667934.94
I2
tp5579
a(F1491667977.27
I0
tp5580
a(F1491667999.21
I2
tp5581
a(F1491668229.96
I0
tp5582
a(F1491668508.26
I0
tp5583
a(F1491668534.99
I2
tp5584
a(F1491668589.92
I0
tp5585
a(F1491668705.3
I2
tp5586
a(F1491668834.95
I2
tp5587
a(F1491668949.9
I0
tp5588
a(F1491669134.95
I2
tp5589
a(F1491669177.44
I2
tp5590
a(F1491669264.67
I2
tp5591
a(F1491669309.88
I0
tp5592
a(F1491669418.67
I2
tp5593
a(F1491669440.07
I0
tp5594
a(F1491669475.7
I0
tp5595
a(F1491669499.2
I2
tp5596
a(F1491669520.26
I0
tp5597
a(F1491669544.9
I0
tp5598
a(F1491669669.86
I0
tp5599
a(F1491669711.7
I0
tp5600
a(F1491669757.15
I2
tp5601
a(F1491669787.68
I0
tp5602
a(F1491669808.59
I2
tp5603
a(F1491670032.93
I0
tp5604
a(F1491670095.88
I0
tp5605
a(F1491670269.84
I0
tp5606
a(F1491670291.12
I2
tp5607
a(F1491670312.27
I0
tp5608
a(F1491670321.76
I0
tp5609
a(F1491670321.76
I0
tp5610
a(F1491670327.21
I0
tp5611
a(F1491670337.13
I2
tp5612
a(F1491670346.06
I0
tp5613
a(F1491670346.24
I0
tp5614
a(F1491670346.27
I0
tp5615
a(F1491670346.67
I2
tp5616
a(F1491670358.28
I0
tp5617
a(F1491670382.09
I0
tp5618
a(F1491670422.8
I0
tp5619
a(F1491670472.62
I2
tp5620
a(F1491670501.65
I0
tp5621
a(F1491670537.6
I2
tp5622
a(F1491670565.65
I0
tp5623
a(F1491670587.21
I0
tp5624
a(F1491670610.72
I0
tp5625
a(F1491670632.86
I0
tp5626
a(F1491670659.56
I0
tp5627
a(F1491670668.19
I2
tp5628
a(F1491670695.63
I0
tp5629
a(F1491670722.22
I0
tp5630
a(F1491670759.63
I0
tp5631
a(F1491670800.67
I2
tp5632
a(F1491670823.66
I0
tp5633
a(F1491670877.67
I2
tp5634
a(F1491670912.61
I2
tp5635
a(F1491670953.71
I0
tp5636
a(F1491670978.12
I2
tp5637
a(F1491671004.7
I0
tp5638
a(F1491671029.2
I2
tp5639
a(F1491671065.6
I2
tp5640
aaa(lp5641
S'172.16.99.204'
p5642
a(lp5643
(F1491656192.17
I1
tp5644
a(F1491656192.89
I2
tp5645
a(F1491656193.43
I0
tp5646
a(F1491656193.69
I1
tp5647
a(F1491656194.26
I1
tp5648
a(F1491656197.7
I1
tp5649
a(F1491656199.09
I0
tp5650
a(F1491656199.59
I1
tp5651
a(F1491673585.16
I1
tp5652
a(F1491673585.16
I1
tp5653
a(F1491673585.18
I1
tp5654
a(F1491673585.19
I1
tp5655
a(F1491673585.35
I1
tp5656
a(F1491673585.5
I1
tp5657
a(F1491673585.53
I1
tp5658
a(F1491673585.66
I1
tp5659
a(F1491673585.83
I1
tp5660
a(F1491673585.86
I1
tp5661
a(F1491673586.0
I1
tp5662
a(F1491673586.18
I1
tp5663
a(F1491673586.2
I1
tp5664
a(F1491673586.35
I1
tp5665
a(F1491673586.78
I1
tp5666
a(F1491673586.97
I1
tp5667
a(F1491673587.14
I1
tp5668
a(F1491673587.31
I1
tp5669
a(F1491673587.47
I1
tp5670
a(F1491673587.65
I1
tp5671
a(F1491673587.82
I1
tp5672
a(F1491673587.98
I1
tp5673
a(F1491673588.19
I1
tp5674
a(F1491673588.31
I1
tp5675
a(F1491673588.36
I1
tp5676
a(F1491673588.43
I1
tp5677
a(F1491673588.53
I1
tp5678
a(F1491673588.56
I1
tp5679
a(F1491673588.73
I1
tp5680
a(F1491673588.9
I1
tp5681
a(F1491673589.06
I1
tp5682
a(F1491673589.1
I1
tp5683
a(F1491673589.23
I1
tp5684
a(F1491673589.43
I1
tp5685
a(F1491673589.59
I1
tp5686
a(F1491673589.79
I1
tp5687
a(F1491673589.99
I1
tp5688
a(F1491673590.16
I1
tp5689
a(F1491673590.33
I1
tp5690
a(F1491673590.51
I1
tp5691
a(F1491673590.69
I1
tp5692
a(F1491673590.88
I1
tp5693
a(F1491673591.06
I1
tp5694
a(F1491673591.23
I1
tp5695
a(F1491673591.4
I1
tp5696
a(F1491673591.57
I1
tp5697
a(F1491673591.75
I1
tp5698
a(F1491673591.92
I1
tp5699
a(F1491673592.1
I1
tp5700
a(F1491673592.27
I1
tp5701
a(F1491673592.45
I1
tp5702
a(F1491673592.62
I1
tp5703
a(F1491673592.78
I1
tp5704
a(F1491673592.97
I1
tp5705
a(F1491673593.14
I1
tp5706
a(F1491673593.36
I1
tp5707
a(F1491673593.71
I1
tp5708
a(F1491673593.88
I1
tp5709
a(F1491673594.06
I1
tp5710
a(F1491673594.23
I1
tp5711
a(F1491673594.4
I1
tp5712
a(F1491673594.56
I1
tp5713
a(F1491673594.73
I1
tp5714
a(F1491673594.9
I1
tp5715
a(F1491673595.07
I1
tp5716
a(F1491673595.27
I1
tp5717
a(F1491673595.44
I1
tp5718
a(F1491673595.61
I1
tp5719
a(F1491673595.78
I1
tp5720
a(F1491673595.95
I1
tp5721
a(F1491673596.14
I1
tp5722
a(F1491673596.33
I1
tp5723
a(F1491673596.51
I1
tp5724
a(F1491673596.68
I1
tp5725
a(F1491673596.84
I1
tp5726
a(F1491673597.01
I1
tp5727
a(F1491673597.17
I1
tp5728
a(F1491673597.37
I1
tp5729
a(F1491673597.73
I1
tp5730
a(F1491673597.9
I1
tp5731
a(F1491673598.07
I1
tp5732
a(F1491673598.24
I1
tp5733
a(F1491673598.41
I1
tp5734
a(F1491673598.57
I1
tp5735
a(F1491673598.75
I1
tp5736
a(F1491673598.92
I1
tp5737
a(F1491673599.09
I1
tp5738
a(F1491673599.26
I1
tp5739
a(F1491673599.43
I1
tp5740
a(F1491673599.6
I1
tp5741
a(F1491673599.76
I1
tp5742
a(F1491673599.93
I1
tp5743
a(F1491673600.09
I1
tp5744
a(F1491673600.26
I1
tp5745
a(F1491673600.42
I1
tp5746
a(F1491673600.59
I1
tp5747
a(F1491673600.75
I1
tp5748
a(F1491673600.93
I1
tp5749
a(F1491673601.11
I1
tp5750
a(F1491673604.0
I1
tp5751
a(F1491673642.5
I2
tp5752
a(F1491673647.85
I0
tp5753
a(F1491673649.04
I1
tp5754
a(F1491673650.28
I1
tp5755
a(F1491660777.21
I2
tp5756
a(F1491661129.77
I1
tp5757
a(F1491661130.54
I1
tp5758
a(F1491664377.29
I2
tp5759
a(F1491667977.27
I2
tp5760
a(F1491670308.26
I1
tp5761
a(F1491670308.72
I1
tp5762
a(F1491670309.23
I1
tp5763
a(F1491670309.23
I1
tp5764
a(F1491670309.23
I1
tp5765
a(F1491670309.98
I1
tp5766
a(F1491670309.98
I1
tp5767
a(F1491670310.86
I1
tp5768
a(F1491670311.04
I1
tp5769
a(F1491670311.04
I1
tp5770
a(F1491670311.05
I1
tp5771
a(F1491670311.2
I1
tp5772
a(F1491670311.25
I1
tp5773
a(F1491670311.26
I1
tp5774
a(F1491670311.47
I1
tp5775
a(F1491670311.47
I1
tp5776
a(F1491670311.49
I1
tp5777
a(F1491670314.83
I2
tp5778
a(F1491670315.0
I2
tp5779
a(F1491670315.0
I1
tp5780
a(F1491670320.19
I1
tp5781
a(F1491670325.28
I2
tp5782
aaa(lp5783
S'172.16.100.81'
p5784
a(lp5785
(F1491656270.29
I2
tp5786
a(F1491656484.8
I2
tp5787
a(F1491656487.05
I2
tp5788
a(F1491656580.22
I1
tp5789
a(F1491656580.42
I1
tp5790
a(F1491656602.73
I1
tp5791
a(F1491656626.13
I1
tp5792
a(F1491656628.21
I1
tp5793
a(F1491656629.46
I1
tp5794
a(F1491656634.69
I1
tp5795
a(F1491656635.69
I1
tp5796
a(F1491656636.75
I1
tp5797
a(F1491656637.47
I1
tp5798
a(F1491656638.52
I1
tp5799
a(F1491657596.31
I2
tp5800
a(F1491657926.32
I2
tp5801
a(F1491657927.08
I2
tp5802
a(F1491657932.59
I2
tp5803
a(F1491657933.85
I2
tp5804
a(F1491658665.24
I1
tp5805
a(F1491658665.24
I1
tp5806
a(F1491658665.37
I1
tp5807
a(F1491658665.44
I1
tp5808
a(F1491658665.55
I1
tp5809
a(F1491668229.71
I2
tp5810
a(F1491668229.85
I2
tp5811
a(F1491668239.62
I2
tp5812
a(F1491668251.41
I1
tp5813
a(F1491668251.41
I1
tp5814
a(F1491668251.41
I1
tp5815
a(F1491668251.54
I1
tp5816
a(F1491668251.54
I1
tp5817
a(F1491668251.54
I1
tp5818
a(F1491668251.6
I1
tp5819
a(F1491668251.75
I1
tp5820
a(F1491668251.75
I1
tp5821
a(F1491668251.99
I1
tp5822
a(F1491668252.05
I1
tp5823
a(F1491668252.06
I1
tp5824
a(F1491668252.16
I1
tp5825
a(F1491668252.25
I1
tp5826
a(F1491668257.01
I1
tp5827
a(F1491668261.34
I1
tp5828
a(F1491668265.38
I1
tp5829
a(F1491668266.05
I1
tp5830
a(F1491668269.15
I1
tp5831
a(F1491668271.12
I2
tp5832
a(F1491668273.23
I2
tp5833
a(F1491668382.38
I2
tp5834
a(F1491668456.4
I2
tp5835
a(F1491668568.15
I1
tp5836
a(F1491668719.85
I2
tp5837
a(F1491668733.11
I2
tp5838
a(F1491668784.56
I2
tp5839
a(F1491668797.31
I1
tp5840
a(F1491668798.25
I1
tp5841
a(F1491668798.25
I1
tp5842
a(F1491668798.25
I1
tp5843
a(F1491668798.25
I1
tp5844
a(F1491668883.06
I2
tp5845
a(F1491668930.95
I2
tp5846
a(F1491669173.02
I1
tp5847
a(F1491669173.44
I1
tp5848
a(F1491669406.14
I2
tp5849
a(F1491669570.55
I2
tp5850
a(F1491669650.95
I2
tp5851
a(F1491669683.85
I2
tp5852
a(F1491669693.9
I2
tp5853
a(F1491669694.15
I2
tp5854
a(F1491669694.86
I2
tp5855
a(F1491669701.85
I1
tp5856
a(F1491669720.54
I2
tp5857
a(F1491671649.49
I2
tp5858
a(F1491671656.3
I1
tp5859
a(F1491671656.33
I1
tp5860
a(F1491671656.33
I1
tp5861
a(F1491671656.33
I1
tp5862
a(F1491671656.33
I1
tp5863
a(F1491671656.33
I1
tp5864
a(F1491671656.33
I1
tp5865
a(F1491671656.33
I1
tp5866
a(F1491671656.43
I1
tp5867
a(F1491671656.49
I1
tp5868
a(F1491671656.49
I1
tp5869
a(F1491671656.96
I1
tp5870
a(F1491671656.97
I1
tp5871
a(F1491671657.5
I1
tp5872
a(F1491671657.55
I2
tp5873
a(F1491671657.59
I1
tp5874
a(F1491671657.6
I1
tp5875
a(F1491671681.25
I2
tp5876
a(F1491671683.61
I2
tp5877
a(F1491671696.51
I2
tp5878
a(F1491671716.49
I2
tp5879
a(F1491671834.47
I2
tp5880
a(F1491671972.44
I1
tp5881
a(F1491672036.88
I1
tp5882
a(F1491672092.17
I2
tp5883
a(F1491672362.68
I2
tp5884
a(F1491672363.2
I2
tp5885
a(F1491672363.67
I2
tp5886
a(F1491672365.68
I2
tp5887
a(F1491672416.54
I1
tp5888
a(F1491672416.54
I1
tp5889
a(F1491672416.54
I1
tp5890
a(F1491672416.54
I1
tp5891
a(F1491672542.89
I2
tp5892
a(F1491672543.06
I2
tp5893
a(F1491672546.1
I2
tp5894
a(F1491672568.42
I2
tp5895
a(F1491672647.82
I2
tp5896
a(F1491672697.96
I2
tp5897
a(F1491672698.23
I2
tp5898
a(F1491672698.96
I2
tp5899
a(F1491672726.39
I2
tp5900
a(F1491672732.43
I1
tp5901
a(F1491672732.47
I1
tp5902
a(F1491672802.48
I2
tp5903
aaa(lp5904
S'172.16.98.86'
p5905
a(lp5906
(F1491656403.53
I2
tp5907
a(F1491656482.14
I2
tp5908
a(F1491656482.67
I2
tp5909
a(F1491656484.76
I2
tp5910
a(F1491656484.76
I2
tp5911
a(F1491656484.76
I2
tp5912
a(F1491656485.37
I2
tp5913
a(F1491656485.37
I2
tp5914
a(F1491656486.2
I2
tp5915
a(F1491656486.2
I2
tp5916
a(F1491656486.2
I2
tp5917
a(F1491656486.2
I2
tp5918
a(F1491656498.42
I2
tp5919
a(F1491656498.42
I2
tp5920
a(F1491656498.42
I2
tp5921
a(F1491656498.42
I2
tp5922
a(F1491656498.42
I2
tp5923
a(F1491656498.42
I2
tp5924
a(F1491656498.46
I2
tp5925
a(F1491656498.91
I2
tp5926
a(F1491656498.97
I2
tp5927
a(F1491656499.04
I2
tp5928
a(F1491656499.38
I2
tp5929
a(F1491656499.38
I2
tp5930
a(F1491656500.19
I2
tp5931
a(F1491656500.41
I2
tp5932
a(F1491656500.95
I2
tp5933
a(F1491656501.49
I2
tp5934
a(F1491656501.49
I2
tp5935
a(F1491656505.45
I2
tp5936
a(F1491656505.45
I2
tp5937
a(F1491656505.45
I2
tp5938
a(F1491656505.45
I2
tp5939
a(F1491656505.45
I2
tp5940
a(F1491656506.04
I2
tp5941
a(F1491656506.04
I2
tp5942
a(F1491656506.04
I2
tp5943
a(F1491656506.84
I2
tp5944
a(F1491656510.48
I2
tp5945
a(F1491656511.15
I2
tp5946
a(F1491656511.15
I2
tp5947
a(F1491656511.15
I2
tp5948
a(F1491656511.16
I2
tp5949
a(F1491656512.74
I2
tp5950
a(F1491656513.43
I2
tp5951
a(F1491656524.81
I2
tp5952
a(F1491656526.35
I2
tp5953
a(F1491656542.74
I2
tp5954
a(F1491656542.74
I2
tp5955
a(F1491656542.74
I2
tp5956
a(F1491656542.74
I2
tp5957
a(F1491656542.9
I2
tp5958
a(F1491656543.15
I2
tp5959
a(F1491656543.15
I2
tp5960
a(F1491656572.15
I2
tp5961
a(F1491656572.66
I2
tp5962
a(F1491656588.53
I2
tp5963
a(F1491656588.67
I2
tp5964
a(F1491656589.43
I2
tp5965
a(F1491656589.61
I2
tp5966
a(F1491656590.53
I2
tp5967
a(F1491656591.54
I2
tp5968
a(F1491656591.54
I2
tp5969
a(F1491656591.65
I2
tp5970
a(F1491656591.66
I2
tp5971
a(F1491656591.86
I2
tp5972
a(F1491656591.86
I2
tp5973
a(F1491656591.86
I2
tp5974
a(F1491656591.86
I2
tp5975
a(F1491656592.11
I2
tp5976
a(F1491656592.38
I2
tp5977
a(F1491656592.52
I2
tp5978
a(F1491656592.97
I2
tp5979
a(F1491656593.31
I2
tp5980
a(F1491656594.11
I2
tp5981
a(F1491656594.2
I2
tp5982
a(F1491656594.24
I2
tp5983
a(F1491656594.32
I2
tp5984
a(F1491656594.87
I2
tp5985
a(F1491656603.65
I2
tp5986
a(F1491656604.91
I2
tp5987
a(F1491656605.48
I2
tp5988
a(F1491656616.83
I2
tp5989
a(F1491656617.0
I2
tp5990
a(F1491656617.0
I2
tp5991
a(F1491656617.0
I2
tp5992
a(F1491656617.0
I2
tp5993
a(F1491656617.0
I2
tp5994
a(F1491656617.0
I2
tp5995
a(F1491656617.89
I2
tp5996
a(F1491656619.01
I2
tp5997
a(F1491656619.01
I2
tp5998
a(F1491656619.01
I2
tp5999
a(F1491656619.12
I2
tp6000
a(F1491656619.27
I2
tp6001
a(F1491656620.04
I2
tp6002
a(F1491656620.12
I2
tp6003
a(F1491656620.56
I2
tp6004
a(F1491656620.56
I2
tp6005
a(F1491656620.66
I2
tp6006
a(F1491656621.38
I2
tp6007
a(F1491656621.87
I2
tp6008
a(F1491656622.42
I2
tp6009
a(F1491656622.91
I2
tp6010
a(F1491656623.43
I2
tp6011
a(F1491656623.96
I2
tp6012
a(F1491656624.05
I2
tp6013
a(F1491673265.36
I2
tp6014
a(F1491658354.23
I2
tp6015
a(F1491658513.85
I2
tp6016
a(F1491658513.87
I2
tp6017
a(F1491658753.59
I2
tp6018
a(F1491658753.62
I2
tp6019
a(F1491658990.66
I2
tp6020
a(F1491658990.66
I2
tp6021
a(F1491658990.66
I2
tp6022
a(F1491658990.68
I2
tp6023
a(F1491659054.33
I2
tp6024
a(F1491659114.53
I2
tp6025
a(F1491659350.53
I2
tp6026
a(F1491659350.55
I2
tp6027
a(F1491659593.59
I2
tp6028
a(F1491659593.6
I2
tp6029
a(F1491659593.83
I2
tp6030
a(F1491659593.84
I2
tp6031
a(F1491659594.26
I2
tp6032
a(F1491659594.26
I2
tp6033
a(F1491659595.1
I2
tp6034
a(F1491659596.77
I2
tp6035
a(F1491659600.14
I2
tp6036
a(F1491659606.86
I2
tp6037
a(F1491659620.35
I2
tp6038
a(F1491659647.27
I2
tp6039
a(F1491659647.27
I2
tp6040
a(F1491659647.27
I2
tp6041
a(F1491659647.27
I2
tp6042
a(F1491659953.72
I2
tp6043
a(F1491659980.4
I2
tp6044
a(F1491659980.4
I2
tp6045
a(F1491659980.41
I2
tp6046
a(F1491659980.41
I2
tp6047
a(F1491659980.41
I2
tp6048
a(F1491659980.41
I2
tp6049
a(F1491659980.42
I2
tp6050
a(F1491660174.03
I1
tp6051
a(F1491660174.03
I1
tp6052
a(F1491660174.04
I1
tp6053
a(F1491660174.04
I1
tp6054
a(F1491660190.59
I2
tp6055
a(F1491660190.6
I2
tp6056
a(F1491660430.59
I2
tp6057
a(F1491660430.59
I2
tp6058
a(F1491660430.59
I2
tp6059
a(F1491660430.59
I2
tp6060
a(F1491660430.63
I2
tp6061
a(F1491660430.63
I2
tp6062
a(F1491660430.63
I2
tp6063
a(F1491660529.56
I2
tp6064
a(F1491660563.03
I1
tp6065
a(F1491660563.04
I1
tp6066
a(F1491660563.09
I1
tp6067
a(F1491660563.12
I1
tp6068
a(F1491660563.14
I1
tp6069
a(F1491660563.38
I1
tp6070
a(F1491660563.43
I1
tp6071
a(F1491661030.54
I2
tp6072
a(F1491661030.54
I2
tp6073
a(F1491661030.54
I2
tp6074
a(F1491661030.54
I2
tp6075
a(F1491661078.48
I2
tp6076
a(F1491661393.47
I2
tp6077
a(F1491661489.08
I2
tp6078
a(F1491662233.37
I2
tp6079
a(F1491662364.01
I1
tp6080
a(F1491662470.43
I2
tp6081
a(F1491662589.5
I2
tp6082
a(F1491662833.82
I2
tp6083
a(F1491662834.28
I2
tp6084
a(F1491663410.41
I2
tp6085
a(F1491663593.55
I2
tp6086
a(F1491663593.97
I2
tp6087
a(F1491663594.81
I2
tp6088
a(F1491663596.49
I2
tp6089
a(F1491663599.84
I2
tp6090
a(F1491663606.59
I2
tp6091
a(F1491663620.07
I2
tp6092
a(F1491663646.99
I2
tp6093
a(F1491663793.53
I2
tp6094
a(F1491663793.55
I2
tp6095
a(F1491664150.33
I2
tp6096
a(F1491664390.34
I2
tp6097
a(F1491664390.34
I2
tp6098
a(F1491664390.34
I2
tp6099
a(F1491664390.35
I2
tp6100
a(F1491664391.84
I2
tp6101
a(F1491664393.52
I2
tp6102
a(F1491664393.52
I2
tp6103
a(F1491664393.52
I2
tp6104
a(F1491664393.52
I2
tp6105
a(F1491664393.52
I2
tp6106
a(F1491664444.06
I2
tp6107
a(F1491664633.3
I2
tp6108
a(F1491664633.32
I2
tp6109
a(F1491665073.17
I1
tp6110
a(F1491665073.17
I1
tp6111
a(F1491665073.24
I1
tp6112
a(F1491665073.24
I1
tp6113
a(F1491665073.27
I1
tp6114
a(F1491665073.28
I1
tp6115
a(F1491665133.53
I2
tp6116
a(F1491665133.53
I2
tp6117
a(F1491665133.53
I2
tp6118
a(F1491665133.53
I2
tp6119
a(F1491665133.53
I2
tp6120
a(F1491665145.69
I2
tp6121
a(F1491665180.5
I1
tp6122
a(F1491665180.5
I1
tp6123
a(F1491665180.5
I1
tp6124
a(F1491665180.5
I1
tp6125
a(F1491669414.62
I2
tp6126
a(F1491669414.69
I2
tp6127
a(F1491669414.69
I2
tp6128
a(F1491669414.69
I2
tp6129
a(F1491669414.69
I2
tp6130
a(F1491669414.69
I2
tp6131
a(F1491669414.69
I2
tp6132
a(F1491669414.74
I2
tp6133
a(F1491669414.85
I2
tp6134
a(F1491669414.85
I2
tp6135
a(F1491669414.85
I2
tp6136
a(F1491669419.73
I2
tp6137
a(F1491669419.73
I2
tp6138
a(F1491669419.85
I2
tp6139
a(F1491669419.85
I2
tp6140
a(F1491669419.85
I2
tp6141
a(F1491669419.85
I2
tp6142
a(F1491669419.85
I2
tp6143
a(F1491669419.85
I2
tp6144
a(F1491669419.86
I2
tp6145
a(F1491669442.7
I2
tp6146
a(F1491669443.73
I2
tp6147
a(F1491669443.85
I2
tp6148
a(F1491669443.85
I2
tp6149
a(F1491669443.85
I2
tp6150
a(F1491669443.85
I2
tp6151
a(F1491669443.85
I2
tp6152
a(F1491669443.85
I2
tp6153
a(F1491669443.85
I2
tp6154
a(F1491669444.33
I2
tp6155
a(F1491669444.42
I2
tp6156
a(F1491669444.42
I2
tp6157
a(F1491669444.42
I2
tp6158
a(F1491669444.42
I2
tp6159
a(F1491669444.51
I2
tp6160
a(F1491669444.51
I2
tp6161
a(F1491669444.51
I2
tp6162
a(F1491669444.98
I2
tp6163
a(F1491669444.98
I2
tp6164
a(F1491669444.98
I2
tp6165
a(F1491669444.98
I2
tp6166
a(F1491669444.98
I2
tp6167
a(F1491669444.98
I2
tp6168
a(F1491669445.11
I2
tp6169
a(F1491669445.11
I2
tp6170
a(F1491669445.11
I2
tp6171
a(F1491669445.11
I2
tp6172
a(F1491669445.11
I2
tp6173
a(F1491669446.56
I2
tp6174
a(F1491669446.56
I2
tp6175
a(F1491669446.68
I2
tp6176
a(F1491669447.0
I2
tp6177
a(F1491669447.08
I2
tp6178
a(F1491669448.06
I2
tp6179
a(F1491669539.9
I2
tp6180
a(F1491669556.68
I2
tp6181
a(F1491669556.68
I2
tp6182
a(F1491669556.68
I2
tp6183
a(F1491669556.68
I2
tp6184
a(F1491669556.68
I2
tp6185
a(F1491669556.68
I2
tp6186
a(F1491669556.68
I2
tp6187
a(F1491669556.68
I2
tp6188
a(F1491669556.68
I2
tp6189
a(F1491669556.68
I2
tp6190
a(F1491669558.93
I2
tp6191
a(F1491669558.93
I2
tp6192
a(F1491669558.93
I2
tp6193
a(F1491669558.93
I2
tp6194
a(F1491669559.06
I2
tp6195
a(F1491669559.06
I2
tp6196
a(F1491669559.06
I2
tp6197
a(F1491669559.06
I2
tp6198
a(F1491669559.06
I2
tp6199
a(F1491669559.06
I2
tp6200
a(F1491669559.47
I2
tp6201
a(F1491669563.54
I2
tp6202
a(F1491669564.25
I2
tp6203
a(F1491669571.55
I1
tp6204
a(F1491669571.55
I1
tp6205
a(F1491669571.55
I1
tp6206
a(F1491669571.55
I1
tp6207
a(F1491669571.56
I1
tp6208
a(F1491669571.56
I1
tp6209
a(F1491669631.69
I2
tp6210
a(F1491669631.69
I2
tp6211
a(F1491669631.69
I2
tp6212
a(F1491669631.69
I2
tp6213
a(F1491669632.33
I2
tp6214
a(F1491669632.88
I2
tp6215
a(F1491669633.71
I2
tp6216
a(F1491669634.35
I2
tp6217
a(F1491669634.96
I2
tp6218
a(F1491669635.02
I2
tp6219
a(F1491669635.11
I2
tp6220
a(F1491669635.82
I2
tp6221
a(F1491669635.89
I2
tp6222
a(F1491669636.57
I2
tp6223
a(F1491669637.49
I2
tp6224
a(F1491669637.59
I2
tp6225
a(F1491669637.67
I2
tp6226
a(F1491669637.67
I2
tp6227
a(F1491669637.67
I2
tp6228
a(F1491669637.67
I2
tp6229
a(F1491669637.74
I2
tp6230
a(F1491669638.87
I2
tp6231
a(F1491669640.46
I2
tp6232
a(F1491669640.46
I2
tp6233
a(F1491669640.46
I2
tp6234
a(F1491669641.19
I2
tp6235
a(F1491669641.19
I2
tp6236
a(F1491669641.19
I2
tp6237
a(F1491669641.19
I2
tp6238
a(F1491669642.05
I2
tp6239
a(F1491669642.12
I2
tp6240
a(F1491669642.18
I2
tp6241
a(F1491669642.24
I2
tp6242
a(F1491669642.31
I2
tp6243
a(F1491669654.21
I2
tp6244
a(F1491669655.0
I2
tp6245
a(F1491669655.08
I2
tp6246
a(F1491669655.93
I2
tp6247
a(F1491669655.99
I2
tp6248
a(F1491669655.99
I2
tp6249
a(F1491669655.99
I2
tp6250
a(F1491669656.06
I2
tp6251
a(F1491669657.53
I2
tp6252
a(F1491669658.29
I2
tp6253
a(F1491670096.89
I2
tp6254
a(F1491670097.68
I2
tp6255
a(F1491670098.15
I2
tp6256
a(F1491670113.11
I2
tp6257
a(F1491670114.01
I2
tp6258
a(F1491670114.54
I2
tp6259
a(F1491670114.61
I2
tp6260
a(F1491670115.16
I2
tp6261
a(F1491670115.23
I2
tp6262
a(F1491670115.23
I2
tp6263
a(F1491670115.3
I2
tp6264
a(F1491670115.42
I2
tp6265
a(F1491670116.79
I2
tp6266
a(F1491670118.01
I2
tp6267
a(F1491670118.59
I2
tp6268
a(F1491670131.42
I2
tp6269
a(F1491670131.88
I2
tp6270
a(F1491670132.57
I2
tp6271
a(F1491670140.83
I2
tp6272
a(F1491670198.21
I2
tp6273
a(F1491670198.31
I2
tp6274
a(F1491670198.31
I2
tp6275
a(F1491670198.61
I2
tp6276
a(F1491670198.61
I2
tp6277
a(F1491670198.67
I2
tp6278
a(F1491670198.75
I2
tp6279
a(F1491670198.75
I2
tp6280
a(F1491670198.75
I2
tp6281
a(F1491670198.93
I1
tp6282
a(F1491670198.93
I1
tp6283
a(F1491670198.93
I1
tp6284
a(F1491670198.93
I1
tp6285
a(F1491670198.93
I1
tp6286
a(F1491670198.93
I1
tp6287
a(F1491670198.94
I1
tp6288
a(F1491670199.05
I1
tp6289
a(F1491670199.05
I1
tp6290
a(F1491670199.73
I2
tp6291
a(F1491670200.63
I2
tp6292
a(F1491670200.63
I2
tp6293
a(F1491670200.63
I2
tp6294
a(F1491670200.9
I2
tp6295
a(F1491670200.9
I2
tp6296
a(F1491670200.9
I2
tp6297
a(F1491670200.9
I2
tp6298
a(F1491670200.9
I2
tp6299
a(F1491670201.95
I2
tp6300
a(F1491670202.18
I2
tp6301
a(F1491670203.61
I2
tp6302
aaa(lp6303
S'10.18.118.136'
p6304
a(lp6305
(F1491656573.55
I2
tp6306
a(F1491656573.55
I2
tp6307
a(F1491656573.55
I2
tp6308
a(F1491656573.82
I2
tp6309
a(F1491656573.82
I2
tp6310
a(F1491656573.82
I2
tp6311
a(F1491656574.08
I2
tp6312
a(F1491656574.89
I2
tp6313
a(F1491656575.16
I2
tp6314
a(F1491656576.18
I2
tp6315
a(F1491656576.84
I2
tp6316
a(F1491656578.38
I2
tp6317
a(F1491656578.65
I2
tp6318
a(F1491656578.93
I2
tp6319
a(F1491656579.49
I2
tp6320
a(F1491656580.61
I2
tp6321
a(F1491656580.61
I2
tp6322
a(F1491656580.61
I2
tp6323
a(F1491656580.61
I2
tp6324
a(F1491656582.85
I2
tp6325
a(F1491656582.85
I2
tp6326
a(F1491656582.85
I2
tp6327
a(F1491656582.85
I2
tp6328
a(F1491656582.85
I2
tp6329
a(F1491656587.36
I2
tp6330
a(F1491656587.36
I2
tp6331
a(F1491656596.33
I2
tp6332
a(F1491656614.29
I2
tp6333
aaa(lp6334
S'172.16.101.151'
p6335
a(lp6336
(F1491663662.46
I2
tp6337
aaa(lp6338
S'172.16.110.163'
p6339
a(lp6340
(F1491668229.38
I2
tp6341
a(F1491668229.64
I2
tp6342
aaa(lp6343
S'172.16.105.59'
p6344
a(lp6345
(F1491668229.41
I2
tp6346
a(F1491668229.44
I2
tp6347
a(F1491668229.47
I2
tp6348
a(F1491668229.53
I2
tp6349
aaa(lp6350
S'172.16.101.236'
p6351
a(lp6352
(F1491660666.46
I2
tp6353
aaa(lp6354
S'172.16.104.153'
p6355
a(lp6356
(F1491661847.36
I2
tp6357
a(F1491661847.41
I2
tp6358
a(F1491661847.41
I2
tp6359
a(F1491661955.68
I2
tp6360
aaa(lp6361
S'172.16.104.242'
p6362
a(lp6363
(F1491661858.91
I1
tp6364
a(F1491661867.11
I2
tp6365
a(F1491661905.53
I1
tp6366
a(F1491661905.54
I1
tp6367
a(F1491661905.54
I1
tp6368
a(F1491661905.54
I1
tp6369
a(F1491661905.58
I1
tp6370
a(F1491661905.59
I1
tp6371
a(F1491661905.59
I1
tp6372
a(F1491661905.59
I1
tp6373
a(F1491661905.61
I1
tp6374
a(F1491661905.61
I1
tp6375
a(F1491661905.61
I1
tp6376
a(F1491661905.61
I1
tp6377
a(F1491661905.61
I1
tp6378
a(F1491661905.62
I1
tp6379
a(F1491661905.62
I1
tp6380
a(F1491661905.63
I1
tp6381
a(F1491661905.63
I1
tp6382
a(F1491661905.63
I1
tp6383
a(F1491661905.64
I1
tp6384
a(F1491661905.66
I1
tp6385
a(F1491661905.66
I1
tp6386
a(F1491661905.67
I1
tp6387
a(F1491661905.9
I1
tp6388
a(F1491661905.9
I1
tp6389
a(F1491661905.93
I1
tp6390
a(F1491661905.93
I1
tp6391
a(F1491661905.93
I1
tp6392
a(F1491661905.93
I1
tp6393
a(F1491661905.93
I1
tp6394
a(F1491661905.93
I1
tp6395
a(F1491661905.93
I1
tp6396
a(F1491661905.93
I1
tp6397
a(F1491661905.94
I1
tp6398
a(F1491661905.95
I1
tp6399
a(F1491661905.95
I1
tp6400
a(F1491661905.96
I1
tp6401
a(F1491661936.05
I1
tp6402
a(F1491661936.05
I1
tp6403
a(F1491661936.05
I1
tp6404
a(F1491661936.06
I1
tp6405
a(F1491661936.06
I1
tp6406
a(F1491661962.78
I1
tp6407
a(F1491661962.78
I1
tp6408
a(F1491661986.98
I2
tp6409
a(F1491662076.99
I2
tp6410
a(F1491662155.74
I1
tp6411
a(F1491662155.74
I1
tp6412
a(F1491662185.83
I1
tp6413
a(F1491662196.97
I2
tp6414
a(F1491662347.02
I2
tp6415
a(F1491662406.21
I1
tp6416
a(F1491662436.49
I1
tp6417
a(F1491662587.0
I2
tp6418
a(F1491662647.04
I2
tp6419
a(F1491662647.25
I1
tp6420
a(F1491662647.25
I1
tp6421
a(F1491662647.25
I1
tp6422
a(F1491662647.25
I1
tp6423
a(F1491662647.25
I1
tp6424
a(F1491662647.25
I1
tp6425
a(F1491662647.25
I1
tp6426
a(F1491662647.26
I1
tp6427
a(F1491662647.31
I1
tp6428
a(F1491662647.33
I1
tp6429
a(F1491662647.33
I1
tp6430
a(F1491662647.33
I1
tp6431
a(F1491662647.35
I1
tp6432
a(F1491662647.36
I1
tp6433
a(F1491662647.37
I1
tp6434
a(F1491662647.38
I1
tp6435
a(F1491662647.94
I1
tp6436
a(F1491662647.95
I1
tp6437
a(F1491662647.95
I1
tp6438
a(F1491662647.96
I1
tp6439
a(F1491662647.99
I1
tp6440
a(F1491662647.99
I1
tp6441
a(F1491662647.99
I1
tp6442
a(F1491662648.01
I1
tp6443
a(F1491662648.02
I1
tp6444
a(F1491662648.02
I1
tp6445
a(F1491662648.04
I1
tp6446
a(F1491662648.04
I1
tp6447
a(F1491662648.04
I1
tp6448
a(F1491662648.04
I1
tp6449
a(F1491662648.05
I1
tp6450
a(F1491662648.06
I1
tp6451
a(F1491662648.07
I1
tp6452
a(F1491662677.51
I1
tp6453
a(F1491662677.51
I1
tp6454
a(F1491662677.52
I1
tp6455
a(F1491662677.52
I1
tp6456
a(F1491662677.53
I1
tp6457
a(F1491662677.54
I1
tp6458
a(F1491662677.6
I1
tp6459
a(F1491662677.6
I1
tp6460
a(F1491662677.6
I1
tp6461
a(F1491662677.6
I1
tp6462
a(F1491662677.6
I1
tp6463
a(F1491662678.14
I1
tp6464
a(F1491662678.14
I1
tp6465
a(F1491662678.14
I1
tp6466
a(F1491662678.17
I1
tp6467
a(F1491662678.25
I1
tp6468
a(F1491662706.96
I2
tp6469
a(F1491663164.65
I2
tp6470
a(F1491663352.48
I1
tp6471
a(F1491663450.81
I2
tp6472
a(F1491663510.81
I2
tp6473
a(F1491663570.82
I2
tp6474
a(F1491663593.55
I1
tp6475
a(F1491663623.21
I1
tp6476
a(F1491663864.4
I1
tp6477
a(F1491663864.4
I1
tp6478
a(F1491663864.4
I1
tp6479
a(F1491663864.4
I1
tp6480
a(F1491663864.49
I1
tp6481
a(F1491663864.5
I1
tp6482
a(F1491663864.5
I1
tp6483
a(F1491663864.5
I1
tp6484
a(F1491663864.5
I1
tp6485
a(F1491663864.5
I1
tp6486
a(F1491663864.5
I1
tp6487
a(F1491663864.52
I1
tp6488
a(F1491663864.52
I1
tp6489
a(F1491663864.53
I1
tp6490
a(F1491663864.54
I1
tp6491
a(F1491663864.54
I1
tp6492
a(F1491663864.92
I1
tp6493
a(F1491663864.92
I1
tp6494
a(F1491663864.92
I1
tp6495
a(F1491663864.92
I1
tp6496
a(F1491663864.92
I1
tp6497
a(F1491663864.92
I1
tp6498
a(F1491663864.93
I1
tp6499
a(F1491663864.93
I1
tp6500
a(F1491663864.94
I1
tp6501
a(F1491663864.94
I1
tp6502
a(F1491663864.94
I1
tp6503
a(F1491663864.94
I1
tp6504
a(F1491663864.95
I1
tp6505
a(F1491663864.95
I1
tp6506
a(F1491663864.96
I1
tp6507
a(F1491663864.96
I1
tp6508
a(F1491663864.97
I1
tp6509
a(F1491663864.98
I1
tp6510
a(F1491664075.67
I1
tp6511
a(F1491664076.3
I1
tp6512
a(F1491664316.73
I1
tp6513
a(F1491664316.73
I1
tp6514
a(F1491664316.73
I1
tp6515
a(F1491664316.73
I1
tp6516
a(F1491664317.57
I1
tp6517
a(F1491664317.57
I1
tp6518
a(F1491664557.95
I1
tp6519
a(F1491664557.97
I1
tp6520
a(F1491664558.02
I1
tp6521
a(F1491664558.04
I1
tp6522
a(F1491664558.04
I1
tp6523
a(F1491664558.07
I1
tp6524
a(F1491664558.32
I1
tp6525
a(F1491664558.32
I1
tp6526
a(F1491664558.33
I1
tp6527
a(F1491664558.33
I1
tp6528
a(F1491664558.33
I1
tp6529
a(F1491664558.34
I1
tp6530
a(F1491664558.35
I1
tp6531
a(F1491664558.35
I1
tp6532
a(F1491664558.36
I1
tp6533
a(F1491664558.36
I1
tp6534
a(F1491664558.37
I1
tp6535
a(F1491664558.37
I1
tp6536
a(F1491664558.38
I1
tp6537
a(F1491664558.39
I1
tp6538
a(F1491664558.39
I1
tp6539
a(F1491664558.43
I1
tp6540
a(F1491664558.44
I1
tp6541
a(F1491664558.45
I1
tp6542
a(F1491664799.27
I1
tp6543
a(F1491664829.36
I1
tp6544
a(F1491665040.17
I1
tp6545
a(F1491665040.17
I1
tp6546
a(F1491665040.17
I1
tp6547
a(F1491665040.17
I1
tp6548
a(F1491665040.25
I1
tp6549
a(F1491665040.27
I1
tp6550
a(F1491665040.27
I1
tp6551
a(F1491665040.3
I1
tp6552
a(F1491665040.31
I1
tp6553
a(F1491665040.59
I1
tp6554
a(F1491665040.59
I1
tp6555
a(F1491665040.6
I1
tp6556
a(F1491665040.64
I1
tp6557
a(F1491665040.64
I1
tp6558
a(F1491665040.66
I1
tp6559
a(F1491665291.0
I1
tp6560
a(F1491665320.66
I1
tp6561
a(F1491665531.71
I1
tp6562
a(F1491665531.71
I1
tp6563
a(F1491665531.71
I1
tp6564
a(F1491665531.72
I1
tp6565
a(F1491665531.76
I1
tp6566
a(F1491665531.76
I1
tp6567
a(F1491665531.77
I1
tp6568
a(F1491665531.8
I1
tp6569
a(F1491665531.8
I1
tp6570
a(F1491665531.8
I1
tp6571
a(F1491665531.81
I1
tp6572
a(F1491665531.82
I1
tp6573
a(F1491665531.83
I1
tp6574
a(F1491665531.84
I1
tp6575
a(F1491665531.85
I1
tp6576
a(F1491665532.26
I1
tp6577
a(F1491665532.27
I1
tp6578
a(F1491665532.28
I1
tp6579
a(F1491665532.28
I1
tp6580
a(F1491665532.28
I1
tp6581
a(F1491665532.29
I1
tp6582
a(F1491665532.3
I1
tp6583
a(F1491665532.33
I1
tp6584
a(F1491665532.33
I1
tp6585
a(F1491665532.33
I1
tp6586
a(F1491665532.33
I1
tp6587
a(F1491665532.33
I1
tp6588
a(F1491665561.93
I1
tp6589
a(F1491665773.02
I1
tp6590
a(F1491665773.02
I1
tp6591
a(F1491665773.02
I1
tp6592
a(F1491665773.02
I1
tp6593
a(F1491665773.02
I1
tp6594
a(F1491665773.02
I1
tp6595
a(F1491665773.02
I1
tp6596
a(F1491665773.02
I1
tp6597
a(F1491665773.02
I1
tp6598
a(F1491665773.02
I1
tp6599
a(F1491665773.02
I1
tp6600
a(F1491665773.02
I1
tp6601
a(F1491665773.09
I1
tp6602
a(F1491665773.1
I1
tp6603
a(F1491665773.11
I1
tp6604
a(F1491665773.11
I1
tp6605
a(F1491665773.14
I1
tp6606
a(F1491665773.14
I1
tp6607
a(F1491665773.14
I1
tp6608
a(F1491665773.14
I1
tp6609
a(F1491665773.14
I1
tp6610
a(F1491665773.56
I1
tp6611
a(F1491665773.56
I1
tp6612
a(F1491665773.57
I1
tp6613
a(F1491665773.57
I1
tp6614
a(F1491665773.58
I1
tp6615
a(F1491665773.58
I1
tp6616
a(F1491665773.59
I1
tp6617
a(F1491665773.59
I1
tp6618
a(F1491665773.62
I1
tp6619
a(F1491665773.62
I1
tp6620
a(F1491665773.62
I1
tp6621
a(F1491665773.62
I1
tp6622
a(F1491665773.63
I1
tp6623
a(F1491665802.74
I1
tp6624
a(F1491665802.74
I1
tp6625
a(F1491665802.75
I1
tp6626
a(F1491665802.75
I1
tp6627
a(F1491665802.79
I1
tp6628
a(F1491665802.79
I1
tp6629
a(F1491665802.8
I1
tp6630
a(F1491665802.81
I1
tp6631
a(F1491665802.81
I1
tp6632
a(F1491665802.82
I1
tp6633
a(F1491665802.82
I1
tp6634
a(F1491665802.83
I1
tp6635
a(F1491665802.83
I1
tp6636
a(F1491665802.84
I1
tp6637
a(F1491665802.85
I1
tp6638
a(F1491665803.1
I1
tp6639
a(F1491665803.1
I1
tp6640
a(F1491665803.11
I1
tp6641
a(F1491665803.12
I1
tp6642
a(F1491665803.13
I1
tp6643
a(F1491665803.13
I1
tp6644
a(F1491665803.13
I1
tp6645
a(F1491665803.15
I1
tp6646
a(F1491665803.15
I1
tp6647
a(F1491665803.16
I1
tp6648
a(F1491665862.98
I1
tp6649
a(F1491665862.99
I1
tp6650
a(F1491665862.99
I1
tp6651
a(F1491665863.01
I1
tp6652
aaa(lp6653
S'172.16.103.217'
p6654
a(lp6655
(F1491662333.3
I1
tp6656
a(F1491662342.95
I2
tp6657
a(F1491662372.16
I2
tp6658
a(F1491662570.5
I2
tp6659
a(F1491662570.59
I2
tp6660
a(F1491662570.81
I2
tp6661
a(F1491662570.84
I2
tp6662
a(F1491662601.98
I1
tp6663
a(F1491663159.88
I1
tp6664
a(F1491663165.38
I1
tp6665
a(F1491663170.78
I2
tp6666
a(F1491663170.79
I1
tp6667
aaa(lp6668
S'172.16.102.59'
p6669
a(lp6670
(F1491665961.16
I1
tp6671
aaa(lp6672
S'10.89.248.52'
p6673
a(lp6674
(F1491669643.56
I2
tp6675
a(F1491669644.19
I2
tp6676
a(F1491669644.47
I2
tp6677
a(F1491669645.07
I2
tp6678
a(F1491669645.07
I2
tp6679
a(F1491669645.07
I2
tp6680
a(F1491669645.07
I2
tp6681
a(F1491669645.65
I2
tp6682
a(F1491669645.65
I2
tp6683
a(F1491669645.65
I2
tp6684
a(F1491669645.65
I2
tp6685
a(F1491669645.65
I2
tp6686
a(F1491669646.81
I2
tp6687
a(F1491669649.13
I2
tp6688
a(F1491669649.13
I2
tp6689
a(F1491669649.13
I2
tp6690
a(F1491669649.13
I2
tp6691
a(F1491669649.13
I2
tp6692
a(F1491669653.78
I2
tp6693
a(F1491669663.07
I2
tp6694
a(F1491669663.07
I2
tp6695
a(F1491669681.68
I2
tp6696
a(F1491669718.82
I2
tp6697
a(F1491670205.11
I2
tp6698
aaatp6699
Rp6700
.